###############################################################################
#                                                                             #
# IAR ELF Linker V6.30.1.53127/W32 for ARM              10/Nov/2014  15:08:53 #
# Copyright 2007-2011 IAR Systems AB.                                         #
#                                                                             #
#    Output file  =  C:\Users\tony.tsou\Desktop\AmTRAN\Projects\15_K2\DevCode #
#                    \2\Projects\S4051A\Output\S4051A\Release\s4051a_release. #
#                    out                                                      #
#    Map file     =  C:\Users\tony.tsou\Desktop\AmTRAN\Projects\15_K2\DevCode #
#                    \2\Projects\S4051A\EWARM\..\Output\S4051A\Release\List\s #
#                    4051a_release.map                                        #
#    Command line =  C:\Users\tony.tsou\Desktop\AmTRAN\Projects\15_K2\DevCode #
#                    \2\Projects\S4051A\Output\S4051A\Release\Obj\CardLowLeve #
#                    l.o C:\Users\tony.tsou\Desktop\AmTRAN\Projects\15_K2\Dev #
#                    Code\2\Projects\S4051A\Output\S4051A\Release\Obj\CardLow #
#                    Level_Platform.o C:\Users\tony.tsou\Desktop\AmTRAN\Proje #
#                    cts\15_K2\DevCode\2\Projects\S4051A\Output\S4051A\Releas #
#                    e\Obj\GPIOLowLevel.o C:\Users\tony.tsou\Desktop\AmTRAN\P #
#                    rojects\15_K2\DevCode\2\Projects\S4051A\Output\S4051A\Re #
#                    lease\Obj\GPIOMiddleLevel.o                              #
#                    C:\Users\tony.tsou\Desktop\AmTRAN\Projects\15_K2\DevCode #
#                    \2\Projects\S4051A\Output\S4051A\Release\Obj\UART_LowLev #
#                    el.o C:\Users\tony.tsou\Desktop\AmTRAN\Projects\15_K2\De #
#                    vCode\2\Projects\S4051A\Output\S4051A\Release\Obj\comman #
#                    d.o C:\Users\tony.tsou\Desktop\AmTRAN\Projects\15_K2\Dev #
#                    Code\2\Projects\S4051A\Output\S4051A\Release\Obj\dir.o   #
#                    C:\Users\tony.tsou\Desktop\AmTRAN\Projects\15_K2\DevCode #
#                    \2\Projects\S4051A\Output\S4051A\Release\Obj\disc.o      #
#                    C:\Users\tony.tsou\Desktop\AmTRAN\Projects\15_K2\DevCode #
#                    \2\Projects\S4051A\Output\S4051A\Release\Obj\efs.o       #
#                    C:\Users\tony.tsou\Desktop\AmTRAN\Projects\15_K2\DevCode #
#                    \2\Projects\S4051A\Output\S4051A\Release\Obj\extract.o   #
#                    C:\Users\tony.tsou\Desktop\AmTRAN\Projects\15_K2\DevCode #
#                    \2\Projects\S4051A\Output\S4051A\Release\Obj\fat.o       #
#                    C:\Users\tony.tsou\Desktop\AmTRAN\Projects\15_K2\DevCode #
#                    \2\Projects\S4051A\Output\S4051A\Release\Obj\fattime.o   #
#                    C:\Users\tony.tsou\Desktop\AmTRAN\Projects\15_K2\DevCode #
#                    \2\Projects\S4051A\Output\S4051A\Release\Obj\ff.o        #
#                    C:\Users\tony.tsou\Desktop\AmTRAN\Projects\15_K2\DevCode #
#                    \2\Projects\S4051A\Output\S4051A\Release\Obj\file.o      #
#                    C:\Users\tony.tsou\Desktop\AmTRAN\Projects\15_K2\DevCode #
#                    \2\Projects\S4051A\Output\S4051A\Release\Obj\flash_layer #
#                    .o C:\Users\tony.tsou\Desktop\AmTRAN\Projects\15_K2\DevC #
#                    ode\2\Projects\S4051A\Output\S4051A\Release\Obj\fs.o     #
#                    C:\Users\tony.tsou\Desktop\AmTRAN\Projects\15_K2\DevCode #
#                    \2\Projects\S4051A\Output\S4051A\Release\Obj\ioman.o     #
#                    C:\Users\tony.tsou\Desktop\AmTRAN\Projects\15_K2\DevCode #
#                    \2\Projects\S4051A\Output\S4051A\Release\Obj\ls.o        #
#                    C:\Users\tony.tsou\Desktop\AmTRAN\Projects\15_K2\DevCode #
#                    \2\Projects\S4051A\Output\S4051A\Release\Obj\main.o      #
#                    C:\Users\tony.tsou\Desktop\AmTRAN\Projects\15_K2\DevCode #
#                    \2\Projects\S4051A\Output\S4051A\Release\Obj\misc.o      #
#                    C:\Users\tony.tsou\Desktop\AmTRAN\Projects\15_K2\DevCode #
#                    \2\Projects\S4051A\Output\S4051A\Release\Obj\mkfs.o      #
#                    C:\Users\tony.tsou\Desktop\AmTRAN\Projects\15_K2\DevCode #
#                    \2\Projects\S4051A\Output\S4051A\Release\Obj\partition.o #
#                     C:\Users\tony.tsou\Desktop\AmTRAN\Projects\15_K2\DevCod #
#                    e\2\Projects\S4051A\Output\S4051A\Release\Obj\plibc.o    #
#                    C:\Users\tony.tsou\Desktop\AmTRAN\Projects\15_K2\DevCode #
#                    \2\Projects\S4051A\Output\S4051A\Release\Obj\startup_stm #
#                    32f411xe.o C:\Users\tony.tsou\Desktop\AmTRAN\Projects\15 #
#                    _K2\DevCode\2\Projects\S4051A\Output\S4051A\Release\Obj\ #
#                    stm32f4xx_exti.o C:\Users\tony.tsou\Desktop\AmTRAN\Proje #
#                    cts\15_K2\DevCode\2\Projects\S4051A\Output\S4051A\Releas #
#                    e\Obj\stm32f4xx_flash.o C:\Users\tony.tsou\Desktop\AmTRA #
#                    N\Projects\15_K2\DevCode\2\Projects\S4051A\Output\S4051A #
#                    \Release\Obj\stm32f4xx_gpio.o                            #
#                    C:\Users\tony.tsou\Desktop\AmTRAN\Projects\15_K2\DevCode #
#                    \2\Projects\S4051A\Output\S4051A\Release\Obj\stm32f4xx_i #
#                    t.o C:\Users\tony.tsou\Desktop\AmTRAN\Projects\15_K2\Dev #
#                    Code\2\Projects\S4051A\Output\S4051A\Release\Obj\stm32f4 #
#                    xx_rcc.o C:\Users\tony.tsou\Desktop\AmTRAN\Projects\15_K #
#                    2\DevCode\2\Projects\S4051A\Output\S4051A\Release\Obj\st #
#                    m32f4xx_tim.o C:\Users\tony.tsou\Desktop\AmTRAN\Projects #
#                    \15_K2\DevCode\2\Projects\S4051A\Output\S4051A\Release\O #
#                    bj\system_stm32f4xx.o C:\Users\tony.tsou\Desktop\AmTRAN\ #
#                    Projects\15_K2\DevCode\2\Projects\S4051A\Output\S4051A\R #
#                    elease\Obj\time.o C:\Users\tony.tsou\Desktop\AmTRAN\Proj #
#                    ects\15_K2\DevCode\2\Projects\S4051A\Output\S4051A\Relea #
#                    se\Obj\ui.o C:\Users\tony.tsou\Desktop\AmTRAN\Projects\1 #
#                    5_K2\DevCode\2\Projects\S4051A\Output\S4051A\Release\Obj #
#                    \usb_bsp.o C:\Users\tony.tsou\Desktop\AmTRAN\Projects\15 #
#                    _K2\DevCode\2\Projects\S4051A\Output\S4051A\Release\Obj\ #
#                    usb_core.o C:\Users\tony.tsou\Desktop\AmTRAN\Projects\15 #
#                    _K2\DevCode\2\Projects\S4051A\Output\S4051A\Release\Obj\ #
#                    usb_hcd.o C:\Users\tony.tsou\Desktop\AmTRAN\Projects\15_ #
#                    K2\DevCode\2\Projects\S4051A\Output\S4051A\Release\Obj\u #
#                    sb_hcd_int.o C:\Users\tony.tsou\Desktop\AmTRAN\Projects\ #
#                    15_K2\DevCode\2\Projects\S4051A\Output\S4051A\Release\Ob #
#                    j\usbh_core.o C:\Users\tony.tsou\Desktop\AmTRAN\Projects #
#                    \15_K2\DevCode\2\Projects\S4051A\Output\S4051A\Release\O #
#                    bj\usbh_hcs.o C:\Users\tony.tsou\Desktop\AmTRAN\Projects #
#                    \15_K2\DevCode\2\Projects\S4051A\Output\S4051A\Release\O #
#                    bj\usbh_ioreq.o C:\Users\tony.tsou\Desktop\AmTRAN\Projec #
#                    ts\15_K2\DevCode\2\Projects\S4051A\Output\S4051A\Release #
#                    \Obj\usbh_msc_bot.o C:\Users\tony.tsou\Desktop\AmTRAN\Pr #
#                    ojects\15_K2\DevCode\2\Projects\S4051A\Output\S4051A\Rel #
#                    ease\Obj\usbh_msc_core.o C:\Users\tony.tsou\Desktop\AmTR #
#                    AN\Projects\15_K2\DevCode\2\Projects\S4051A\Output\S4051 #
#                    A\Release\Obj\usbh_msc_fatfs.o                           #
#                    C:\Users\tony.tsou\Desktop\AmTRAN\Projects\15_K2\DevCode #
#                    \2\Projects\S4051A\Output\S4051A\Release\Obj\usbh_msc_fs #
#                    _interface.o C:\Users\tony.tsou\Desktop\AmTRAN\Projects\ #
#                    15_K2\DevCode\2\Projects\S4051A\Output\S4051A\Release\Ob #
#                    j\usbh_msc_scsi.o C:\Users\tony.tsou\Desktop\AmTRAN\Proj #
#                    ects\15_K2\DevCode\2\Projects\S4051A\Output\S4051A\Relea #
#                    se\Obj\usbh_stdreq.o C:\Users\tony.tsou\Desktop\AmTRAN\P #
#                    rojects\15_K2\DevCode\2\Projects\S4051A\Output\S4051A\Re #
#                    lease\Obj\usbh_usr.o -o C:\Users\tony.tsou\Desktop\AmTRA #
#                    N\Projects\15_K2\DevCode\2\Projects\S4051A\Output\S4051A #
#                    \Release\s4051a_release.out --keep APPMAIN               #
#                    --image_input=C:\Users\tony.tsou\Desktop\AmTRAN\Projects #
#                    \15_K2\DevCode\2\Projects\S4051A\EWARM\..\Output\S4051A\ #
#                    S4051A.bin,APPMAIN,APPSEC,8 --map                        #
#                    C:\Users\tony.tsou\Desktop\AmTRAN\Projects\15_K2\DevCode #
#                    \2\Projects\S4051A\EWARM\..\Output\S4051A\Release\List\s #
#                    4051a_release.map --config C:\Users\tony.tsou\Desktop\Am #
#                    TRAN\Projects\15_K2\DevCode\2\Projects\S4051A\EWARM\..\. #
#                    .\..\Utilities\mainstream_v1\stm32f411\icf\stm32f411xe_r #
#                    elease.icf --entry __iar_program_start --inline --vfe    #
#                                                                             #
#                                                                             #
###############################################################################

*******************************************************************************
*** RUNTIME MODEL ATTRIBUTES
***

CppFlavor       = *
__SystemLibrary = DLib


*******************************************************************************
*** PLACEMENT SUMMARY
***

"A1":  place at 0x08000000 { ro section .intvec };
"P1":  place in [from 0x08000000 to 0x0803ffff] { ro };
"P2":  place in [from 0x08008000 to 0x0803ffff] { section APPSEC };
"P3":  place in [from 0x20000000 to 0x2001ffff] { rw, block CSTACK, block HEAP };

  Section            Kind        Address     Size  Object
  -------            ----        -------     ----  ------
"A1":                                       0x198
  .intvec            ro code  0x08000000    0x198  startup_stm32f411xe.o [2]
                            - 0x08000198    0x198

"P1":                                      0x4a14
  .text              ro code  0x08000198   0x11f4  ff.o [2]
  .text              ro code  0x0800138c    0x124  usbh_msc_fatfs.o [2]
  .text              ro code  0x080014b0    0x384  usbh_msc_scsi.o [2]
  .text              ro code  0x08001834     0x9e  usb_hcd.o [2]
  .text              ro code  0x080018d2     0x22  zero_init3.o [6]
  .text              ro code  0x080018f4    0x2a0  usbh_msc_bot.o [2]
  .text              ro code  0x08001b94    0x650  usb_core.o [2]
  .text              ro code  0x080021e4    0x124  usbh_ioreq.o [2]
  .text              ro code  0x08002308    0x2ee  usbh_stdreq.o [2]
  .text              ro code  0x080025f8    0x1ba  usb_bsp.o [2]
  .text              ro code  0x080027b4    0x1d4  GPIOLowLevel.o [2]
  .text              ro code  0x08002988      0x8  GPIOMiddleLevel.o [2]
  .text              ro code  0x08002990     0x98  stm32f4xx_rcc.o [2]
  .text              ro code  0x08002a28     0x94  stm32f4xx_gpio.o [2]
  .text              ro code  0x08002abc     0x8c  misc.o [2]
  .text              ro code  0x08002b48     0xd4  stm32f4xx_tim.o [2]
  .text              ro code  0x08002c1c    0xc28  usb_hcd_int.o [2]
  .text              ro code  0x08003844    0x5b4  usbh_core.o [2]
  .text              ro code  0x08003df8     0xde  usbh_hcs.o [2]
  .text              ro code  0x08003ed8    0x318  command.o [2]
  .text              ro code  0x080041f0    0x152  flash_layer.o [2]
  .text              ro code  0x08004344    0x13e  stm32f4xx_flash.o [2]
  .text              ro code  0x08004484    0x23c  usbh_msc_core.o [2]
  .text              ro code  0x080046c0     0x4c  usbh_usr.o [2]
  .text              ro code  0x0800470c    0x110  system_stm32f4xx.o [2]
  .text              ro code  0x0800481c     0xa0  packbits_init3.o [6]
  .text              ro code  0x080048bc     0x80  main.o [2]
  .text              ro code  0x0800493c     0x2c  stm32f4xx_it.o [2]
  .text              ro code  0x08004968     0x2c  data_init3.o [6]
  .iar.init_table    const    0x08004994     0x2c  - Linker created -
  .text              ro code  0x080049c0     0x1a  fpinit_M.o [5]
  .text              ro code  0x080049dc     0x16  cmain.o [6]
  .text              ro code  0x080049f2      0x4  exit.o [4]
  .text              ro code  0x080049f8      0xa  cexit.o [6]
  .text              ro code  0x08004a04      0xc  XXexit.o [6]
  .text              ro code  0x08004a10     0x10  startup_stm32f411xe.o [2]
  .text              ro code  0x08004a20      0xc  cstartup_M.o [6]
  .text              ro code  0x08004a2c      0x4  startup_stm32f411xe.o [2]
  .text              ro code  0x08004a30      0x4  startup_stm32f411xe.o [2]
  .text              ro code  0x08004a34      0x4  startup_stm32f411xe.o [2]
  .text              ro code  0x08004a38      0x4  startup_stm32f411xe.o [2]
  .text              ro code  0x08004a3c      0x4  startup_stm32f411xe.o [2]
  .text              ro code  0x08004a40      0x4  startup_stm32f411xe.o [2]
  .text              ro code  0x08004a44      0x4  startup_stm32f411xe.o [2]
  .text              ro code  0x08004a48      0x4  startup_stm32f411xe.o [2]
  .text              ro code  0x08004a4c      0x4  startup_stm32f411xe.o [2]
  .text              ro code  0x08004a50      0x4  startup_stm32f411xe.o [2]
  .text              ro code  0x08004a54      0x4  startup_stm32f411xe.o [2]
  .text              ro code  0x08004a58      0x4  startup_stm32f411xe.o [2]
  .text              ro code  0x08004a5c      0x4  startup_stm32f411xe.o [2]
  .text              ro code  0x08004a60      0x4  startup_stm32f411xe.o [2]
  .text              ro code  0x08004a64      0x4  startup_stm32f411xe.o [2]
  .text              ro code  0x08004a68      0x4  startup_stm32f411xe.o [2]
  .text              ro code  0x08004a6c      0x4  startup_stm32f411xe.o [2]
  .text              ro code  0x08004a70      0x4  startup_stm32f411xe.o [2]
  .text              ro code  0x08004a74      0x4  startup_stm32f411xe.o [2]
  .text              ro code  0x08004a78      0x4  startup_stm32f411xe.o [2]
  .text              ro code  0x08004a7c      0x4  startup_stm32f411xe.o [2]
  .text              ro code  0x08004a80      0x4  startup_stm32f411xe.o [2]
  .text              ro code  0x08004a84      0x4  startup_stm32f411xe.o [2]
  .text              ro code  0x08004a88      0x4  startup_stm32f411xe.o [2]
  .text              ro code  0x08004a8c      0x4  startup_stm32f411xe.o [2]
  .text              ro code  0x08004a90      0x4  startup_stm32f411xe.o [2]
  .text              ro code  0x08004a94      0x4  startup_stm32f411xe.o [2]
  .text              ro code  0x08004a98      0x4  startup_stm32f411xe.o [2]
  .text              ro code  0x08004a9c      0x4  startup_stm32f411xe.o [2]
  .text              ro code  0x08004aa0      0x4  startup_stm32f411xe.o [2]
  .text              ro code  0x08004aa4      0x4  startup_stm32f411xe.o [2]
  .text              ro code  0x08004aa8      0x4  startup_stm32f411xe.o [2]
  .text              ro code  0x08004aac      0x4  startup_stm32f411xe.o [2]
  .text              ro code  0x08004ab0      0x4  startup_stm32f411xe.o [2]
  .text              ro code  0x08004ab4      0x4  startup_stm32f411xe.o [2]
  .text              ro code  0x08004ab8      0x4  startup_stm32f411xe.o [2]
  .text              ro code  0x08004abc      0x4  startup_stm32f411xe.o [2]
  .text              ro code  0x08004ac0      0x4  startup_stm32f411xe.o [2]
  .text              ro code  0x08004ac4      0x4  startup_stm32f411xe.o [2]
  .text              ro code  0x08004ac8      0x4  startup_stm32f411xe.o [2]
  .text              ro code  0x08004acc      0x4  startup_stm32f411xe.o [2]
  .text              ro code  0x08004ad0      0x4  startup_stm32f411xe.o [2]
  .text              ro code  0x08004ad4      0x4  startup_stm32f411xe.o [2]
  .text              ro code  0x08004ad8      0x4  startup_stm32f411xe.o [2]
  .text              ro code  0x08004adc      0x4  startup_stm32f411xe.o [2]
  .text              ro code  0x08004ae0      0x4  startup_stm32f411xe.o [2]
  .text              ro code  0x08004ae4      0x4  startup_stm32f411xe.o [2]
  .text              ro code  0x08004ae8      0x4  startup_stm32f411xe.o [2]
  .text              ro code  0x08004aec      0x4  startup_stm32f411xe.o [2]
  .text              ro code  0x08004af0      0x4  startup_stm32f411xe.o [2]
  .text              ro code  0x08004af4      0x4  startup_stm32f411xe.o [2]
  .text              ro code  0x08004af8      0x4  startup_stm32f411xe.o [2]
  .text              ro code  0x08004afc      0x4  startup_stm32f411xe.o [2]
  .text              ro code  0x08004b00      0x4  startup_stm32f411xe.o [2]
  .text              ro code  0x08004b04      0x4  startup_stm32f411xe.o [2]
  .text              ro code  0x08004b08      0x4  startup_stm32f411xe.o [2]
  .text              ro code  0x08004b0c      0x4  startup_stm32f411xe.o [2]
  .text              ro code  0x08004b10      0x4  startup_stm32f411xe.o [2]
  .rodata            const    0x08004b14      0x0  bwt_init3c.o [6]
  Initializer bytes  ro data  0x08004b14     0x98  <for P3 s0>
                            - 0x08004bac   0x4a14

"P2":                                     0x25c68
  APPSEC             const    0x08008000  0x25c68  S4051A.bin [1]
                            - 0x0802dc68  0x25c68

"P3", part 1 of 3:                          0x89c
  P3 s0                       0x20000000    0x89a  <Init block>
    .data            inited   0x20000000    0x800  command.o [2]
    .data            inited   0x20000800     0x48  usbh_usr.o [2]
    .data            inited   0x20000848     0x30  command.o [2]
    .data            inited   0x20000878     0x10  usbh_msc_core.o [2]
    .data            inited   0x20000888      0xc  usbh_core.o [2]
    .data            inited   0x20000894      0x4  usbh_core.o [2]
    .data            inited   0x20000898      0x1  usbh_msc_fatfs.o [2]
    .data            inited   0x20000899      0x1  usbh_msc_scsi.o [2]
                            - 0x2000089a    0x89a

"P3", part 2 of 3:                         0x135c
  .bss               zero     0x2000089c    0x638  main.o [2]
  .bss               zero     0x20000ed4    0x430  usbh_usr.o [2]
  .bss               zero     0x20001304    0x424  command.o [2]
  .bss               zero     0x20001728    0x200  usbh_msc_scsi.o [2]
  .bss               zero     0x20001928    0x200  usbh_stdreq.o [2]
  .bss               zero     0x20001b28     0x4c  usbh_msc_core.o [2]
  .bss               zero     0x20001b74     0x34  usbh_msc_bot.o [2]
  .bss               zero     0x20001ba8     0x20  usbh_msc_bot.o [2]
  .bss               zero     0x20001bc8     0x10  usbh_msc_scsi.o [2]
  .bss               zero     0x20001bd8      0x8  ff.o [2]
  .bss               zero     0x20001be0      0x8  flash_layer.o [2]
  .bss               zero     0x20001be8      0x4  usb_bsp.o [2]
  .bss               zero     0x20001bec      0x4  usbh_stdreq.o [2]
  .bss               zero     0x20001bf0      0x2  usbh_core.o [2]
  .bss               zero     0x20001bf2      0x2  usbh_msc_core.o [2]
  .bss               zero     0x20001bf4      0x1  command.o [2]
  .bss               zero     0x20001bf5      0x1  usbh_core.o [2]
  .bss               zero     0x20001bf6      0x1  usbh_usr.o [2]
                            - 0x20001bf7   0x135b

"P3", part 3 of 3:                          0x900
  CSTACK                      0x20001bf8    0x900  <Block>
    CSTACK           uninit   0x20001bf8    0x900  <Block tail>
                            - 0x200024f8    0x900


*******************************************************************************
*** INIT TABLE
***

          Address     Size
          -------     ----
Zero (__iar_zero_init3)
    1 destination range, total size 0x135b:
          0x2000089c  0x135b

Copy/packbits (__iar_packbits_init3)
    1 source range, total size 0x98 (6% of destination):
          0x08004b14    0x98
    1 destination range, total size 0x89a:
          0x20000000   0x89a



*******************************************************************************
*** MODULE SUMMARY
***

    Module                 ro code  ro data  rw data
    ------                 -------  -------  -------
C:\Users\tony.tsou\Desktop\AmTRAN\Projects\15_K2\DevCode\2\Projects\S4051A\Output\S4051A: [1]
    S4051A.bin                      154 728
    ------------------------------------------------
    Total:                          154 728

C:\Users\tony.tsou\Desktop\AmTRAN\Projects\15_K2\DevCode\2\Projects\S4051A\Output\S4051A\Release\Obj: [2]
    GPIOLowLevel.o             468
    GPIOMiddleLevel.o            8
    command.o                  792      144    3 157
    ff.o                     4 596                 8
    flash_layer.o              338                 8
    main.o                     128             1 592
    misc.o                     140
    startup_stm32f411xe.o      656
    stm32f4xx_flash.o          318
    stm32f4xx_gpio.o           148
    stm32f4xx_it.o              44
    stm32f4xx_rcc.o            152
    stm32f4xx_tim.o            212
    system_stm32f4xx.o         272
    usb_bsp.o                  442                 4
    usb_core.o               1 616
    usb_hcd.o                  158
    usb_hcd_int.o            3 112
    usbh_core.o              1 460        1       19
    usbh_hcs.o                 222
    usbh_ioreq.o               292
    usbh_msc_bot.o             672                84
    usbh_msc_core.o            572        1       94
    usbh_msc_fatfs.o           292                 1
    usbh_msc_scsi.o            900        1      529
    usbh_stdreq.o              750               516
    usbh_usr.o                  76        5    1 145
    ------------------------------------------------
    Total:                  18 836      152    7 157

command line: [3]
    ------------------------------------------------
    Total:

dl7M_tln.a: [4]
    exit.o                       4
    ------------------------------------------------
    Total:                       4

m7M_tlv.a: [5]
    fpinit_M.o                  26
    ------------------------------------------------
    Total:                      26

rt7M_tl.a: [6]
    XXexit.o                    12
    bwt_init3c.o
    cexit.o                     10
    cmain.o                     22
    cstartup_M.o                12
    data_init3.o                44
    packbits_init3.o           160
    zero_init3.o                34
    ------------------------------------------------
    Total:                     294

    Gaps                        16
    Linker created                       44    2 304
----------------------------------------------------
    Grand Total:            19 176  154 924    9 461


*******************************************************************************
*** ENTRY LIST
***

Entry                      Address     Size  Type      Object
-----                      -------     ----  ----      ------
?main                   0x080049dd           Code  Gb  cmain.o [6]
ADC_IRQHandler          0x08004a81           Code  Wk  startup_stm32f411xe.o [2]
APPMAIN                 0x08008000  0x25c68  Data  Gb  S4051A.bin [1]
BOTStallErrorCount      0x20001b98      0x4  Data  Lc  usbh_msc_bot.o [2]
BSP_Delay               0x08002727     0x64  Code  Lc  usb_bsp.o [2]
BSP_Init                0x080025f9     0x16  Code  Gb  usb_bsp.o [2]
BSP_delay               0x20001be8      0x4  Data  Gb  usb_bsp.o [2]
BusFault_Handler        0x08004943      0x2  Code  Gb  stm32f4xx_it.o [2]
COMMAND_EraseInternalFlash
                        0x0800407d     0x48  Code  Gb  command.o [2]
COMMAND_IAPExecuteApplication
                        0x08004155     0x5a  Code  Gb  command.o [2]
COMMAND_JUMP            0x08003ed9     0x18  Code  Gb  command.o [2]
COMMAND_ProgramFlash    0x080040c5     0x90  Code  Gb  command.o [2]
COMMAND_checkProjectID  0x08004015     0x68  Code  Gb  command.o [2]
COMMAND_isCorrectCheckSum
                        0x08003fa1     0x74  Code  Gb  command.o [2]
COMMAND_isCorrectPES    0x08003ef1     0xb0  Code  Gb  command.o [2]
CSTACK$$Base            0x20001bf8            --   Gb  - Linker created -
CSTACK$$Limit           0x200024f8            --   Gb  - Linker created -
DMA1_Stream0_IRQHandler
                        0x08004a65           Code  Wk  startup_stm32f411xe.o [2]
DMA1_Stream1_IRQHandler
                        0x08004a69           Code  Wk  startup_stm32f411xe.o [2]
DMA1_Stream2_IRQHandler
                        0x08004a6d           Code  Wk  startup_stm32f411xe.o [2]
DMA1_Stream3_IRQHandler
                        0x08004a71           Code  Wk  startup_stm32f411xe.o [2]
DMA1_Stream4_IRQHandler
                        0x08004a75           Code  Wk  startup_stm32f411xe.o [2]
DMA1_Stream5_IRQHandler
                        0x08004a79           Code  Wk  startup_stm32f411xe.o [2]
DMA1_Stream6_IRQHandler
                        0x08004a7d           Code  Wk  startup_stm32f411xe.o [2]
DMA1_Stream7_IRQHandler
                        0x08004acd           Code  Wk  startup_stm32f411xe.o [2]
DMA2_Stream0_IRQHandler
                        0x08004add           Code  Wk  startup_stm32f411xe.o [2]
DMA2_Stream1_IRQHandler
                        0x08004ae1           Code  Wk  startup_stm32f411xe.o [2]
DMA2_Stream2_IRQHandler
                        0x08004ae5           Code  Wk  startup_stm32f411xe.o [2]
DMA2_Stream3_IRQHandler
                        0x08004ae9           Code  Wk  startup_stm32f411xe.o [2]
DMA2_Stream4_IRQHandler
                        0x08004aed           Code  Wk  startup_stm32f411xe.o [2]
DMA2_Stream5_IRQHandler
                        0x08004af1           Code  Wk  startup_stm32f411xe.o [2]
DMA2_Stream6_IRQHandler
                        0x08004af5           Code  Wk  startup_stm32f411xe.o [2]
DMA2_Stream7_IRQHandler
                        0x08004af9           Code  Wk  startup_stm32f411xe.o [2]
DebugMon_Handler        0x08004947      0x2  Code  Gb  stm32f4xx_it.o [2]
EXTI0_IRQHandler        0x08004a51           Code  Wk  startup_stm32f411xe.o [2]
EXTI15_10_IRQHandler    0x08004ac1           Code  Wk  startup_stm32f411xe.o [2]
EXTI1_IRQHandler        0x08004a55           Code  Wk  startup_stm32f411xe.o [2]
EXTI2_IRQHandler        0x08004a59           Code  Wk  startup_stm32f411xe.o [2]
EXTI3_IRQHandler        0x08004a5d           Code  Wk  startup_stm32f411xe.o [2]
EXTI4_IRQHandler        0x08004a61           Code  Wk  startup_stm32f411xe.o [2]
EXTI9_5_IRQHandler      0x08004a85           Code  Wk  startup_stm32f411xe.o [2]
FLASH_EraseSector       0x0800436b     0x68  Code  Gb  stm32f4xx_flash.o [2]
FLASH_GetStatus         0x08004415     0x38  Code  Gb  stm32f4xx_flash.o [2]
FLASH_IRQHandler        0x08004a49           Code  Wk  startup_stm32f411xe.o [2]
FLASH_LAYER_FlashUnlock
                        0x0800428d      0x4  Code  Gb  flash_layer.o [2]
FLASH_LAYER_Flashlock   0x08004291      0x4  Code  Gb  flash_layer.o [2]
FLASH_LAYER_GetSector   0x080041f1     0x9c  Code  Gb  flash_layer.o [2]
FLASH_LAYER_write_n_word
                        0x08004295     0x72  Code  Gb  flash_layer.o [2]
FLASH_Lock              0x0800435d      0xe  Code  Gb  stm32f4xx_flash.o [2]
FLASH_ProgramWord       0x080043d3     0x24  Code  Gb  stm32f4xx_flash.o [2]
FLASH_Unlock            0x08004345     0x18  Code  Gb  stm32f4xx_flash.o [2]
FLASH_WaitForLastOperation
                        0x08004465     0x1e  Code  Gb  stm32f4xx_flash.o [2]
FPU_IRQHandler          0x08004b09           Code  Wk  startup_stm32f411xe.o [2]
FatFs                   0x20001bdc      0x4  Data  Lc  ff.o [2]
Fsid                    0x20001bd8      0x2  Data  Lc  ff.o [2]
GPIOLowLevel_Clr        0x08002815     0x12  Code  Gb  GPIOLowLevel.o [2]
GPIOLowLevel_Configuration
                        0x080027c9     0x3a  Code  Gb  GPIOLowLevel.o [2]
GPIOLowLevel_Set        0x08002803     0x12  Code  Gb  GPIOLowLevel.o [2]
GPIOMiddleLevel_Clr     0x0800298d      0x4  Code  Gb  GPIOMiddleLevel.o [2]
GPIOMiddleLevel_Set     0x08002989      0x4  Code  Gb  GPIOMiddleLevel.o [2]
GPIO_Init               0x08002a29     0x70  Code  Gb  stm32f4xx_gpio.o [2]
GPIO_PinAFConfig        0x08002a99     0x24  Code  Gb  stm32f4xx_gpio.o [2]
HCD_GetCurrentFrame     0x080018a5      0x8  Code  Gb  usb_hcd.o [2]
HCD_GetCurrentSpeed     0x08001889      0xc  Code  Gb  usb_hcd.o [2]
HCD_GetURB_State        0x080018ad      0x8  Code  Gb  usb_hcd.o [2]
HCD_GetXferCnt          0x080018b5      0xa  Code  Gb  usb_hcd.o [2]
HCD_Init                0x08001835     0x54  Code  Gb  usb_hcd.o [2]
HCD_IsDeviceConnected   0x0800189f      0x6  Code  Gb  usb_hcd.o [2]
HCD_ResetPort           0x08001895      0xa  Code  Gb  usb_hcd.o [2]
HCD_SubmitRequest       0x080018bf     0x14  Code  Gb  usb_hcd.o [2]
HardFault_Handler       0x0800493f      0x2  Code  Gb  stm32f4xx_it.o [2]
I2C1_ER_IRQHandler      0x08004aa5           Code  Wk  startup_stm32f411xe.o [2]
I2C1_EV_IRQHandler      0x08004aa1           Code  Wk  startup_stm32f411xe.o [2]
I2C2_ER_IRQHandler      0x08004aad           Code  Wk  startup_stm32f411xe.o [2]
I2C2_EV_IRQHandler      0x08004aa9           Code  Wk  startup_stm32f411xe.o [2]
I2C3_ER_IRQHandler      0x08004b05           Code  Wk  startup_stm32f411xe.o [2]
I2C3_EV_IRQHandler      0x08004b01           Code  Wk  startup_stm32f411xe.o [2]
JumpAddress             0x200008a0      0x4  Data  Gb  main.o [2]
Jump_To_Application     0x2000089c      0x4  Data  Gb  main.o [2]
Last_PGAddress          0x20000870      0x4  Data  Lc  command.o [2]
MSCErrorCount           0x20001bf2      0x1  Data  Gb  usbh_msc_core.o [2]
MSC_Machine             0x20001b28     0x4c  Data  Gb  usbh_msc_core.o [2]
MemManage_Handler       0x08004941      0x2  Code  Gb  stm32f4xx_it.o [2]
NMI_Handler             0x0800493d      0x2  Code  Gb  stm32f4xx_it.o [2]
NVIC_Init               0x08002ac7     0x58  Code  Gb  misc.o [2]
NVIC_PriorityGroupConfig
                        0x08002abd      0xa  Code  Gb  misc.o [2]
NVIC_SetVectorTable     0x08002b1f      0xc  Code  Gb  misc.o [2]
OTG_FS_IRQHandler       0x08004949     0x18  Code  Gb  stm32f4xx_it.o [2]
OTG_FS_WKUP_IRQHandler  0x08004ac9           Code  Wk  startup_stm32f411xe.o [2]
PID                     0x080041e8      0x8  Data  Gb  command.o [2]
PVD_IRQHandler          0x08004a3d           Code  Wk  startup_stm32f411xe.o [2]
PendSV_Handler          0x08004a31           Code  Wk  startup_stm32f411xe.o [2]
PhysicalPins            0x08002828    0x160  Data  Gb  GPIOLowLevel.o [2]
RAM_Buf                 0x20000000    0x800  Data  Lc  command.o [2]
RCC_AHB1PeriphClockCmd  0x08002991     0x12  Code  Gb  stm32f4xx_rcc.o [2]
RCC_AHB2PeriphClockCmd  0x080029a3     0x12  Code  Gb  stm32f4xx_rcc.o [2]
RCC_APB1PeriphClockCmd  0x080029b5     0x12  Code  Gb  stm32f4xx_rcc.o [2]
RCC_APB2PeriphClockCmd  0x080029c7     0x12  Code  Gb  stm32f4xx_rcc.o [2]
RCC_ClearFlag           0x08002a03      0xc  Code  Gb  stm32f4xx_rcc.o [2]
RCC_GetFlagStatus       0x080029d9     0x2a  Code  Gb  stm32f4xx_rcc.o [2]
RCC_IRQHandler          0x08004a4d           Code  Wk  startup_stm32f411xe.o [2]
RTC_Alarm_IRQHandler    0x08004ac5           Code  Wk  startup_stm32f411xe.o [2]
RTC_WKUP_IRQHandler     0x08004a45           Code  Wk  startup_stm32f411xe.o [2]
Region$$Table$$Base     0x08004994            --   Gb  - Linker created -
Region$$Table$$Limit    0x080049c0            --   Gb  - Linker created -
Reset_Handler           0x08004a11           Code  Wk  startup_stm32f411xe.o [2]
SDIO_IRQHandler         0x08004ad1           Code  Wk  startup_stm32f411xe.o [2]
SPI1_IRQHandler         0x08004ab1           Code  Wk  startup_stm32f411xe.o [2]
SPI2_IRQHandler         0x08004ab5           Code  Wk  startup_stm32f411xe.o [2]
SPI3_IRQHandler         0x08004ad9           Code  Wk  startup_stm32f411xe.o [2]
SPI4_IRQHandler         0x08004b0d           Code  Wk  startup_stm32f411xe.o [2]
SPI5_IRQHandler         0x08004b11           Code  Wk  startup_stm32f411xe.o [2]
SVC_Handler             0x08004a2d           Code  Wk  startup_stm32f411xe.o [2]
Stat                    0x20000898      0x1  Data  Lc  usbh_msc_fatfs.o [2]
SysTick_Handler         0x08004a35           Code  Wk  startup_stm32f411xe.o [2]
SystemInit              0x0800470d     0xe6  Code  Gb  system_stm32f4xx.o [2]
TAMP_STAMP_IRQHandler   0x08004a41           Code  Wk  startup_stm32f411xe.o [2]
TIM1_BRK_TIM9_IRQHandler
                        0x08004a89           Code  Wk  startup_stm32f411xe.o [2]
TIM1_CC_IRQHandler      0x08004a95           Code  Wk  startup_stm32f411xe.o [2]
TIM1_TRG_COM_TIM11_IRQHandler
                        0x08004a91           Code  Wk  startup_stm32f411xe.o [2]
TIM1_UP_TIM10_IRQHandler
                        0x08004a8d           Code  Wk  startup_stm32f411xe.o [2]
TIM2_IRQHandler         0x08004965      0x4  Code  Gb  stm32f4xx_it.o [2]
TIM3_IRQHandler         0x08004a99           Code  Wk  startup_stm32f411xe.o [2]
TIM4_IRQHandler         0x08004a9d           Code  Wk  startup_stm32f411xe.o [2]
TIM5_IRQHandler         0x08004ad5           Code  Wk  startup_stm32f411xe.o [2]
TIM_ARRPreloadConfig    0x08002bab     0x14  Code  Gb  stm32f4xx_tim.o [2]
TIM_ClearITPendingBit   0x08002c15      0x2  Code  Gb  stm32f4xx_tim.o [2]
TIM_Cmd                 0x08002bbf     0x14  Code  Gb  stm32f4xx_tim.o [2]
TIM_GetITStatus         0x08002c01     0x14  Code  Gb  stm32f4xx_tim.o [2]
TIM_ITConfig            0x08002bf1     0x10  Code  Gb  stm32f4xx_tim.o [2]
TIM_TimeBaseInit        0x08002b49     0x62  Code  Gb  stm32f4xx_tim.o [2]
USART1_IRQHandler       0x08004ab9           Code  Wk  startup_stm32f411xe.o [2]
USART2_IRQHandler       0x08004abd           Code  Wk  startup_stm32f411xe.o [2]
USART6_IRQHandler       0x08004afd           Code  Wk  startup_stm32f411xe.o [2]
USBH_Alloc_Channel      0x08003e75     0x34  Code  Gb  usbh_hcs.o [2]
USBH_BulkReceiveData    0x080022b9     0x16  Code  Gb  usbh_ioreq.o [2]
USBH_BulkSendData       0x080022a3     0x16  Code  Gb  usbh_ioreq.o [2]
USBH_CfgDesc            0x20001928    0x200  Data  Gb  usbh_stdreq.o [2]
USBH_ClrFeature         0x08002427     0x2a  Code  Gb  usbh_stdreq.o [2]
USBH_Connected          0x08003845      0x4  Code  Gb  usbh_core.o [2]
USBH_CtlReceiveData     0x0800228d     0x16  Code  Gb  usbh_ioreq.o [2]
USBH_CtlReq             0x080021e5     0x62  Code  Gb  usbh_ioreq.o [2]
USBH_CtlSendData        0x0800226d     0x20  Code  Gb  usbh_ioreq.o [2]
USBH_CtlSendSetup       0x08002247     0x26  Code  Gb  usbh_ioreq.o [2]
USBH_DataInBuffer       0x20001728    0x200  Data  Gb  usbh_msc_scsi.o [2]
USBH_DeAllocate_AllChannel
                        0x08003ec1     0x16  Code  Gb  usbh_hcs.o [2]
USBH_DeInit             0x08003897     0x38  Code  Gb  usbh_core.o [2]
USBH_Disconnected       0x08003849      0x2  Code  Gb  usbh_core.o [2]
USBH_ErrorHandle        0x08003a73     0x30  Code  Gb  usbh_core.o [2]
USBH_Free_Channel       0x08003ea9     0x18  Code  Gb  usbh_hcs.o [2]
USBH_GetDescriptor      0x080023d3     0x36  Code  Gb  usbh_stdreq.o [2]
USBH_GetNextDesc        0x080025e7     0x10  Code  Gb  usbh_stdreq.o [2]
USBH_Get_CfgDesc        0x08002337     0x50  Code  Gb  usbh_stdreq.o [2]
USBH_Get_DevDesc        0x08002309     0x2e  Code  Gb  usbh_stdreq.o [2]
USBH_Get_StringDesc     0x08002387     0x4c  Code  Gb  usbh_stdreq.o [2]
USBH_HCD_INT_cb         0x20000888      0xc  Data  Gb  usbh_core.o [2]
USBH_HCD_INT_fops       0x20000894      0x4  Data  Gb  usbh_core.o [2]
USBH_HandleControl      0x08003c41    0x1a6  Code  Gb  usbh_core.o [2]
USBH_HandleEnum         0x08003aa5    0x188  Code  Lc  usbh_core.o [2]
USBH_Init               0x08003857     0x40  Code  Gb  usbh_core.o [2]
USBH_MSC_BOTXferParam   0x20001b74     0x10  Data  Gb  usbh_msc_bot.o [2]
USBH_MSC_BOT_Abort      0x08001b01     0x30  Code  Gb  usbh_msc_bot.o [2]
USBH_MSC_CBWData        0x20001ba8     0x20  Data  Gb  usbh_msc_bot.o [2]
USBH_MSC_CSWData        0x20001b84     0x10  Data  Gb  usbh_msc_bot.o [2]
USBH_MSC_ClassRequest   0x08004549      0xa  Code  Lc  usbh_msc_core.o [2]
USBH_MSC_DecodeCSW      0x08001b31     0x46  Code  Gb  usbh_msc_bot.o [2]
USBH_MSC_ErrorHandle    0x0800468b     0x28  Code  Gb  usbh_msc_core.o [2]
USBH_MSC_Handle         0x08004555    0x136  Code  Lc  usbh_msc_core.o [2]
USBH_MSC_HandleBOTXfer  0x0800191d    0x1cc  Code  Gb  usbh_msc_bot.o [2]
USBH_MSC_Init           0x080018f5     0x28  Code  Gb  usbh_msc_bot.o [2]
USBH_MSC_InterfaceDeInit
                        0x08004517     0x32  Code  Lc  usbh_msc_core.o [2]
USBH_MSC_InterfaceInit  0x08004485     0x80  Code  Lc  usbh_msc_core.o [2]
USBH_MSC_ModeSense6     0x080015b3     0x86  Code  Gb  usbh_msc_scsi.o [2]
USBH_MSC_Param          0x20001bc8     0x10  Data  Gb  usbh_msc_scsi.o [2]
USBH_MSC_Read10         0x0800175d     0xc0  Code  Gb  usbh_msc_scsi.o [2]
USBH_MSC_ReadCapacity10
                        0x08001527     0x8c  Code  Gb  usbh_msc_scsi.o [2]
USBH_MSC_RequestSense   0x0800163f     0x8a  Code  Gb  usbh_msc_scsi.o [2]
USBH_MSC_TestUnitReady  0x080014b1     0x76  Code  Gb  usbh_msc_scsi.o [2]
USBH_MSC_Write10        0x080016c9     0x94  Code  Gb  usbh_msc_scsi.o [2]
USBH_MSC_cb             0x20000878     0x10  Data  Gb  usbh_msc_core.o [2]
USBH_Modify_Channel     0x08003e45     0x30  Code  Gb  usbh_hcs.o [2]
USBH_OTG_ISR_Handler    0x08002c1d     0xdc  Code  Gb  usb_hcd_int.o [2]
USBH_Open_Channel       0x08003df9     0x4c  Code  Gb  usbh_hcs.o [2]
USBH_ParseCfgDesc       0x080024a9    0x10e  Code  Lc  usbh_stdreq.o [2]
USBH_ParseDevDesc       0x08002451     0x58  Code  Lc  usbh_stdreq.o [2]
USBH_ParseInterfaceDesc
                        0x080025c1     0x26  Code  Lc  usbh_stdreq.o [2]
USBH_Process            0x080038d1    0x184  Code  Gb  usbh_core.o [2]
USBH_SOF                0x08003853      0x4  Code  Gb  usbh_core.o [2]
USBH_SetAddress         0x08002409      0x8  Code  Gb  usbh_stdreq.o [2]
USBH_SetCfg             0x08002411      0x6  Code  Gb  usbh_stdreq.o [2]
USBH_USR_ApplicationState
                        0x20001bf6      0x1  Data  Gb  usbh_usr.o [2]
USBH_USR_Configuration_DescAvailable
                        0x080046d1      0x2  Code  Gb  usbh_usr.o [2]
USBH_USR_DeInit         0x080046fd      0x8  Code  Gb  usbh_usr.o [2]
USBH_USR_DeviceAddressAssigned
                        0x080046cf      0x2  Code  Gb  usbh_usr.o [2]
USBH_USR_DeviceAttached
                        0x080046c3      0x2  Code  Gb  usbh_usr.o [2]
USBH_USR_DeviceDisconnected
                        0x080046c7      0x2  Code  Gb  usbh_usr.o [2]
USBH_USR_DeviceNotSupported
                        0x080046db      0x2  Code  Gb  usbh_usr.o [2]
USBH_USR_DeviceSpeedDetected
                        0x080046cb      0x2  Code  Gb  usbh_usr.o [2]
USBH_USR_Device_DescAvailable
                        0x080046cd      0x2  Code  Gb  usbh_usr.o [2]
USBH_USR_EnumerationDone
                        0x080046d9      0x2  Code  Gb  usbh_usr.o [2]
USBH_USR_Init           0x080046c1      0x2  Code  Gb  usbh_usr.o [2]
USBH_USR_MSC_Application
                        0x080046e3     0x1a  Code  Gb  usbh_usr.o [2]
USBH_USR_Manufacturer_String
                        0x080046d3      0x2  Code  Gb  usbh_usr.o [2]
USBH_USR_OverCurrentDetected
                        0x080046e1      0x2  Code  Gb  usbh_usr.o [2]
USBH_USR_Product_String
                        0x080046d5      0x2  Code  Gb  usbh_usr.o [2]
USBH_USR_ResetDevice    0x080046c9      0x2  Code  Gb  usbh_usr.o [2]
USBH_USR_SerialNum_String
                        0x080046d7      0x2  Code  Gb  usbh_usr.o [2]
USBH_USR_UnrecoveredError
                        0x080046c5      0x2  Code  Gb  usbh_usr.o [2]
USBH_USR_UserInput      0x080046dd      0x4  Code  Gb  usbh_usr.o [2]
USB_Host                0x20000e50     0x84  Data  Gb  main.o [2]
USB_OTG_BSP_EnableInterrupt
                        0x080026bd     0x1e  Code  Gb  usb_bsp.o [2]
USB_OTG_BSP_Init        0x0800260f     0xa8  Code  Gb  usb_bsp.o [2]
USB_OTG_BSP_TimerIRQ    0x080026f9     0x2e  Code  Gb  usb_bsp.o [2]
USB_OTG_BSP_mDelay      0x080026f5      0x4  Code  Gb  usb_bsp.o [2]
USB_OTG_BSP_uDelay      0x080026f1      0x4  Code  Gb  usb_bsp.o [2]
USB_OTG_Core            0x200008a4    0x5ac  Data  Gb  main.o [2]
USB_OTG_CoreInit        0x08001ce9     0x76  Code  Gb  usb_core.o [2]
USB_OTG_CoreInitHost    0x08001e1f     0x8a  Code  Gb  usb_core.o [2]
USB_OTG_CoreReset       0x08001b95     0x4a  Code  Lc  usb_core.o [2]
USB_OTG_DisableGlobalInt
                        0x08001d69      0x8  Code  Gb  usb_core.o [2]
USB_OTG_DriveVbus       0x08001eb7     0x3c  Code  Gb  usb_core.o [2]
USB_OTG_EnableGlobalInt
                        0x08001d5f      0xa  Code  Gb  usb_core.o [2]
USB_OTG_EnableHostInt   0x08001ef3     0x2e  Code  Gb  usb_core.o [2]
USB_OTG_FlushRxFifo     0x08001da1     0x20  Code  Gb  usb_core.o [2]
USB_OTG_FlushTxFifo     0x08001d77     0x2a  Code  Gb  usb_core.o [2]
USB_OTG_GetMode         0x08001dfd      0xa  Code  Gb  usb_core.o [2]
USB_OTG_HC_DoPing       0x0800219d     0x20  Code  Gb  usb_core.o [2]
USB_OTG_HC_Halt         0x08002153     0x4a  Code  Gb  usb_core.o [2]
USB_OTG_HC_Init         0x08001f6f     0xda  Code  Gb  usb_core.o [2]
USB_OTG_HC_StartXfer    0x08002049    0x10a  Code  Gb  usb_core.o [2]
USB_OTG_InitFSLSPClkSel
                        0x08001f21     0x12  Code  Gb  usb_core.o [2]
USB_OTG_IsEvenFrame     0x08001ea9      0xe  Code  Gb  usb_core.o [2]
USB_OTG_IsHostMode      0x08001e07      0xe  Code  Gb  usb_core.o [2]
USB_OTG_ReadCoreItr     0x08001e15      0xa  Code  Gb  usb_core.o [2]
USB_OTG_ReadHPRT0       0x08001f33      0xc  Code  Gb  usb_core.o [2]
USB_OTG_ReadPacket      0x08001c09     0x24  Code  Gb  usb_core.o [2]
USB_OTG_ResetPort       0x08001f3f     0x30  Code  Gb  usb_core.o [2]
USB_OTG_SelectCore      0x08001c2d     0xbc  Code  Gb  usb_core.o [2]
USB_OTG_SetCurrentMode  0x08001dd7     0x26  Code  Gb  usb_core.o [2]
USB_OTG_USBH_handle_IncompletePeriodicXfer_ISR
                        0x0800381d     0x28  Code  Lc  usb_hcd_int.o [2]
USB_OTG_USBH_handle_hc_n_In_ISR
                        0x0800337d    0x38c  Code  Lc  usb_hcd_int.o [2]
USB_OTG_USBH_handle_hc_n_Out_ISR
                        0x0800303d    0x340  Code  Lc  usb_hcd_int.o [2]
USB_OTG_USBH_handle_nptxfempty_ISR
                        0x08002cf9    0x11a  Code  Lc  usb_hcd_int.o [2]
USB_OTG_USBH_handle_port_ISR
                        0x08002f2f    0x108  Code  Lc  usb_hcd_int.o [2]
USB_OTG_USBH_handle_ptxfempty_ISR
                        0x08002e13    0x11c  Code  Lc  usb_hcd_int.o [2]
USB_OTG_USBH_handle_rx_qlvl_ISR
                        0x08003709    0x114  Code  Lc  usb_hcd_int.o [2]
USB_OTG_WritePacket     0x08001bdf     0x2a  Code  Gb  usb_core.o [2]
USR_cb                  0x20000800     0x48  Data  Gb  usbh_usr.o [2]
UsageFault_Handler      0x08004945      0x2  Code  Gb  stm32f4xx_it.o [2]
WWDG_IRQHandler         0x08004a39           Code  Wk  startup_stm32f411xe.o [2]
__cmain                 0x080049dd           Code  Gb  cmain.o [6]
__exit                  0x08004a05           Code  Gb  XXexit.o [6]
__iar_SB                0x08004b14           Data  Gb  bwt_init3c.o [6]
__iar_data_init3        0x08004969     0x2c  Code  Gb  data_init3.o [6]
__iar_init_vfp          0x080049c1           Code  Gb  fpinit_M.o [5]
__iar_packbits_init3    0x0800481d     0xa0  Code  Gb  packbits_init3.o [6]
__iar_program_start     0x08004a21           Code  Gb  cstartup_M.o [6]
__iar_zero_init3        0x080018d3     0x22  Code  Gb  zero_init3.o [6]
__vector_table          0x08000000           Data  Gb  startup_stm32f411xe.o [2]
_call_main              0x080049e9           Code  Gb  cmain.o [6]
_exit                   0x080049f9           Code  Gb  cexit.o [6]
_main                   0x080049ef           Code  Gb  cmain.o [6]
bUpdateExtFlash         0x2000085e      0x1  Data  Gb  command.o [2]
calCheckSum             0x2000085d      0x1  Data  Gb  command.o [2]
check_fs                0x08000ac1     0x5e  Code  Lc  ff.o [2]
chk_mounted             0x08000b29    0x294  Code  Gb  ff.o [2]
clust2sect              0x080005cb     0x18  Code  Gb  ff.o [2]
create_chain            0x08000543     0x88  Code  Lc  ff.o [2]
create_name             0x0800086f     0xda  Code  Lc  ff.o [2]
dir_find                0x08000781     0x46  Code  Lc  ff.o [2]
dir_next                0x08000685     0xfc  Code  Lc  ff.o [2]
dir_read                0x080007cd     0x38  Code  Lc  ff.o [2]
dir_register            0x0800080b     0x5e  Code  Lc  ff.o [2]
dir_seek                0x080005e3     0xa2  Code  Lc  ff.o [2]
disk_initialize         0x0800138d     0x18  Code  Gb  usbh_msc_fatfs.o [2]
disk_ioctl              0x08001467     0x38  Code  Gb  usbh_msc_fatfs.o [2]
disk_read               0x080013b1     0x4c  Code  Gb  usbh_msc_fatfs.o [2]
disk_status             0x080013a5      0xc  Code  Gb  usbh_msc_fatfs.o [2]
disk_write              0x080013fd     0x56  Code  Gb  usbh_msc_fatfs.o [2]
exit                    0x080049f3      0x4  Code  Gb  exit.o [4]
f_close                 0x08001169     0x10  Code  Gb  ff.o [2]
f_lseek                 0x08001179    0x152  Code  Gb  ff.o [2]
f_mount                 0x08000de5     0x1c  Code  Gb  ff.o [2]
f_open                  0x08000e11    0x14a  Code  Gb  ff.o [2]
f_opendir               0x080012d5     0x44  Code  Gb  ff.o [2]
f_read                  0x08000f5b    0x15c  Code  Gb  ff.o [2]
f_readdir               0x08001331     0x3c  Code  Gb  ff.o [2]
f_sync                  0x080010c5     0xa4  Code  Gb  ff.o [2]
fatfs                   0x20000ed4    0x430  Data  Gb  usbh_usr.o [2]
filefatfs               0x20001304    0x424  Data  Gb  command.o [2]
follow_path             0x08000a4b     0x70  Code  Lc  ff.o [2]
get_fat                 0x080002e1     0xd0  Code  Gb  ff.o [2]
get_fileinfo            0x080009d5     0x76  Code  Lc  ff.o [2]
mCheckSum               0x2000085c      0x1  Data  Gb  command.o [2]
mDebugTrace             0x2000086c      0x4  Data  Gb  command.o [2]
mPES                    0x20000848     0x14  Data  Gb  command.o [2]
mPayloadSize            0x20000868      0x4  Data  Gb  command.o [2]
mReadBinSize            0x20000874      0x4  Data  Lc  command.o [2]
mSeekPointer            0x20000864      0x4  Data  Gb  command.o [2]
main                    0x080048bd     0x80  Code  Gb  main.o [2]
mdebugaddr              0x20001be4      0x4  Data  Gb  flash_layer.o [2]
mdebugdata              0x20001be0      0x4  Data  Gb  flash_layer.o [2]
mem_cpy                 0x08000199     0x14  Code  Lc  ff.o [2]
mem_set                 0x080001ad     0x10  Code  Lc  ff.o [2]
move_window             0x080001bd     0x50  Code  Lc  ff.o [2]
pPES                    0x20000860      0x4  Data  Gb  command.o [2]
put_fat                 0x080003bb    0x12c  Code  Gb  ff.o [2]
remove_chain            0x080004e7     0x56  Code  Lc  ff.o [2]
sync                    0x08000219     0xc8  Code  Lc  ff.o [2]
validate                0x08000dbd     0x28  Code  Lc  ff.o [2]


[1] = C:\Users\tony.tsou\Desktop\AmTRAN\Projects\15_K2\DevCode\2\Projects\S4051A\Output\S4051A
[2] = C:\Users\tony.tsou\Desktop\AmTRAN\Projects\15_K2\DevCode\2\Projects\S4051A\Output\S4051A\Release\Obj
[3] = command line
[4] = dl7M_tln.a
[5] = m7M_tlv.a
[6] = rt7M_tl.a

   19 176 bytes of readonly  code memory
  154 924 bytes of readonly  data memory
    9 461 bytes of readwrite data memory

Errors: none
Warnings: none
