###############################################################################
#                                                                             #
# IAR ELF Linker V6.30.1.53127/W32 for ARM              12/Nov/2014  09:46:51 #
# Copyright 2007-2011 IAR Systems AB.                                         #
#                                                                             #
#    Output file  =  C:\Users\tony.tsou\Desktop\AmTRAN\Projects\15_K2\DevCode #
#                    \2\Projects\S4051A\Output\S4051A\s4051c_app.out          #
#    Map file     =  C:\Users\tony.tsou\Desktop\AmTRAN\Projects\15_K2\DevCode #
#                    \2\Projects\S4051A\EWARM\..\Output\S4051A\Application\Li #
#                    st\s4051c_app.map                                        #
#    Command line =  C:\Users\tony.tsou\Desktop\AmTRAN\Projects\15_K2\DevCode #
#                    \2\Projects\S4051A\Output\S4051A\Application\Obj\Amplifi #
#                    erDeviceManager.o C:\Users\tony.tsou\Desktop\AmTRAN\Proj #
#                    ects\15_K2\DevCode\2\Projects\S4051A\Output\S4051A\Appli #
#                    cation\Obj\App_main.o C:\Users\tony.tsou\Desktop\AmTRAN\ #
#                    Projects\15_K2\DevCode\2\Projects\S4051A\Output\S4051A\A #
#                    pplication\Obj\AudioDeviceManager.o                      #
#                    C:\Users\tony.tsou\Desktop\AmTRAN\Projects\15_K2\DevCode #
#                    \2\Projects\S4051A\Output\S4051A\Application\Obj\AudioSy #
#                    stemHandler.o C:\Users\tony.tsou\Desktop\AmTRAN\Projects #
#                    \15_K2\DevCode\2\Projects\S4051A\Output\S4051A\Applicati #
#                    on\Obj\BTHandler.o C:\Users\tony.tsou\Desktop\AmTRAN\Pro #
#                    jects\15_K2\DevCode\2\Projects\S4051A\Output\S4051A\Appl #
#                    ication\Obj\ButtonCmdDispatcher.o                        #
#                    C:\Users\tony.tsou\Desktop\AmTRAN\Projects\15_K2\DevCode #
#                    \2\Projects\S4051A\Output\S4051A\Application\Obj\ButtonL #
#                    owLevel.o C:\Users\tony.tsou\Desktop\AmTRAN\Projects\15_ #
#                    K2\DevCode\2\Projects\S4051A\Output\S4051A\Application\O #
#                    bj\CS5346_i2c.o C:\Users\tony.tsou\Desktop\AmTRAN\Projec #
#                    ts\15_K2\DevCode\2\Projects\S4051A\Output\S4051A\Applica #
#                    tion\Obj\CS8422_ISR_Handler.o                            #
#                    C:\Users\tony.tsou\Desktop\AmTRAN\Projects\15_K2\DevCode #
#                    \2\Projects\S4051A\Output\S4051A\Application\Obj\CS8422_ #
#                    i2c.o C:\Users\tony.tsou\Desktop\AmTRAN\Projects\15_K2\D #
#                    evCode\2\Projects\S4051A\Output\S4051A\Application\Obj\C #
#                    ardLowLevel.o C:\Users\tony.tsou\Desktop\AmTRAN\Projects #
#                    \15_K2\DevCode\2\Projects\S4051A\Output\S4051A\Applicati #
#                    on\Obj\CardLowLevel_Platform.o                           #
#                    C:\Users\tony.tsou\Desktop\AmTRAN\Projects\15_K2\DevCode #
#                    \2\Projects\S4051A\Output\S4051A\Application\Obj\Command #
#                    sManager.o C:\Users\tony.tsou\Desktop\AmTRAN\Projects\15 #
#                    _K2\DevCode\2\Projects\S4051A\Output\S4051A\Application\ #
#                    Obj\Debug.o C:\Users\tony.tsou\Desktop\AmTRAN\Projects\1 #
#                    5_K2\DevCode\2\Projects\S4051A\Output\S4051A\Application #
#                    \Obj\EepromDriver.o C:\Users\tony.tsou\Desktop\AmTRAN\Pr #
#                    ojects\15_K2\DevCode\2\Projects\S4051A\Output\S4051A\App #
#                    lication\Obj\FactoryCommandHandler.o                     #
#                    C:\Users\tony.tsou\Desktop\AmTRAN\Projects\15_K2\DevCode #
#                    \2\Projects\S4051A\Output\S4051A\Application\Obj\GPIOLow #
#                    Level.o C:\Users\tony.tsou\Desktop\AmTRAN\Projects\15_K2 #
#                    \DevCode\2\Projects\S4051A\Output\S4051A\Application\Obj #
#                    \GPIOMiddleLevel.o C:\Users\tony.tsou\Desktop\AmTRAN\Pro #
#                    jects\15_K2\DevCode\2\Projects\S4051A\Output\S4051A\Appl #
#                    ication\Obj\HMI_Service.o C:\Users\tony.tsou\Desktop\AmT #
#                    RAN\Projects\15_K2\DevCode\2\Projects\S4051A\Output\S405 #
#                    1A\Application\Obj\HT68F30.o                             #
#                    C:\Users\tony.tsou\Desktop\AmTRAN\Projects\15_K2\DevCode #
#                    \2\Projects\S4051A\Output\S4051A\Application\Obj\HT68F30 #
#                    _i2c.o C:\Users\tony.tsou\Desktop\AmTRAN\Projects\15_K2\ #
#                    DevCode\2\Projects\S4051A\Output\S4051A\Application\Obj\ #
#                    I2C1LowLevel.o C:\Users\tony.tsou\Desktop\AmTRAN\Project #
#                    s\15_K2\DevCode\2\Projects\S4051A\Output\S4051A\Applicat #
#                    ion\Obj\I2C2LowLevel.o C:\Users\tony.tsou\Desktop\AmTRAN #
#                    \Projects\15_K2\DevCode\2\Projects\S4051A\Output\S4051A\ #
#                    Application\Obj\IRCmdHandler.o                           #
#                    C:\Users\tony.tsou\Desktop\AmTRAN\Projects\15_K2\DevCode #
#                    \2\Projects\S4051A\Output\S4051A\Application\Obj\IRLowLe #
#                    vel.o C:\Users\tony.tsou\Desktop\AmTRAN\Projects\15_K2\D #
#                    evCode\2\Projects\S4051A\Output\S4051A\Application\Obj\I #
#                    RLowLevelDecoder.o C:\Users\tony.tsou\Desktop\AmTRAN\Pro #
#                    jects\15_K2\DevCode\2\Projects\S4051A\Output\S4051A\Appl #
#                    ication\Obj\PowerHandler.o C:\Users\tony.tsou\Desktop\Am #
#                    TRAN\Projects\15_K2\DevCode\2\Projects\S4051A\Output\S40 #
#                    51A\Application\Obj\RFHandler.o                          #
#                    C:\Users\tony.tsou\Desktop\AmTRAN\Projects\15_K2\DevCode #
#                    \2\Projects\S4051A\Output\S4051A\Application\Obj\SPILowL #
#                    evel.o C:\Users\tony.tsou\Desktop\AmTRAN\Projects\15_K2\ #
#                    DevCode\2\Projects\S4051A\Output\S4051A\Application\Obj\ #
#                    StorageDeviceDriver.o C:\Users\tony.tsou\Desktop\AmTRAN\ #
#                    Projects\15_K2\DevCode\2\Projects\S4051A\Output\S4051A\A #
#                    pplication\Obj\StorageDeviceManager.o                    #
#                    C:\Users\tony.tsou\Desktop\AmTRAN\Projects\15_K2\DevCode #
#                    \2\Projects\S4051A\Output\S4051A\Application\Obj\SystemD #
#                    efaultParams.o C:\Users\tony.tsou\Desktop\AmTRAN\Project #
#                    s\15_K2\DevCode\2\Projects\S4051A\Output\S4051A\Applicat #
#                    ion\Obj\TAS5713.o C:\Users\tony.tsou\Desktop\AmTRAN\Proj #
#                    ects\15_K2\DevCode\2\Projects\S4051A\Output\S4051A\Appli #
#                    cation\Obj\TAS5713_i2c.o C:\Users\tony.tsou\Desktop\AmTR #
#                    AN\Projects\15_K2\DevCode\2\Projects\S4051A\Output\S4051 #
#                    A\Application\Obj\TAS5727.o                              #
#                    C:\Users\tony.tsou\Desktop\AmTRAN\Projects\15_K2\DevCode #
#                    \2\Projects\S4051A\Output\S4051A\Application\Obj\TAS5727 #
#                    _i2c.o C:\Users\tony.tsou\Desktop\AmTRAN\Projects\15_K2\ #
#                    DevCode\2\Projects\S4051A\Output\S4051A\Application\Obj\ #
#                    UARTCmdDispatcher.o C:\Users\tony.tsou\Desktop\AmTRAN\Pr #
#                    ojects\15_K2\DevCode\2\Projects\S4051A\Output\S4051A\App #
#                    lication\Obj\UART_LowLevel.o                             #
#                    C:\Users\tony.tsou\Desktop\AmTRAN\Projects\15_K2\DevCode #
#                    \2\Projects\S4051A\Output\S4051A\Application\Obj\UIDevic #
#                    eManager.o C:\Users\tony.tsou\Desktop\AmTRAN\Projects\15 #
#                    _K2\DevCode\2\Projects\S4051A\Output\S4051A\Application\ #
#                    Obj\VirtualTimer.o C:\Users\tony.tsou\Desktop\AmTRAN\Pro #
#                    jects\15_K2\DevCode\2\Projects\S4051A\Output\S4051A\Appl #
#                    ication\Obj\buildtime.o C:\Users\tony.tsou\Desktop\AmTRA #
#                    N\Projects\15_K2\DevCode\2\Projects\S4051A\Output\S4051A #
#                    \Application\Obj\croutine.o                              #
#                    C:\Users\tony.tsou\Desktop\AmTRAN\Projects\15_K2\DevCode #
#                    \2\Projects\S4051A\Output\S4051A\Application\Obj\cs49844 #
#                    .o C:\Users\tony.tsou\Desktop\AmTRAN\Projects\15_K2\DevC #
#                    ode\2\Projects\S4051A\Output\S4051A\Application\Obj\cs49 #
#                    844_spi.o C:\Users\tony.tsou\Desktop\AmTRAN\Projects\15_ #
#                    K2\DevCode\2\Projects\S4051A\Output\S4051A\Application\O #
#                    bj\cs5346.o C:\Users\tony.tsou\Desktop\AmTRAN\Projects\1 #
#                    5_K2\DevCode\2\Projects\S4051A\Output\S4051A\Application #
#                    \Obj\cs8422.o C:\Users\tony.tsou\Desktop\AmTRAN\Projects #
#                    \15_K2\DevCode\2\Projects\S4051A\Output\S4051A\Applicati #
#                    on\Obj\dir.o C:\Users\tony.tsou\Desktop\AmTRAN\Projects\ #
#                    15_K2\DevCode\2\Projects\S4051A\Output\S4051A\Applicatio #
#                    n\Obj\disc.o C:\Users\tony.tsou\Desktop\AmTRAN\Projects\ #
#                    15_K2\DevCode\2\Projects\S4051A\Output\S4051A\Applicatio #
#                    n\Obj\efs.o C:\Users\tony.tsou\Desktop\AmTRAN\Projects\1 #
#                    5_K2\DevCode\2\Projects\S4051A\Output\S4051A\Application #
#                    \Obj\event_groups.o C:\Users\tony.tsou\Desktop\AmTRAN\Pr #
#                    ojects\15_K2\DevCode\2\Projects\S4051A\Output\S4051A\App #
#                    lication\Obj\ext_flash_driver.o                          #
#                    C:\Users\tony.tsou\Desktop\AmTRAN\Projects\15_K2\DevCode #
#                    \2\Projects\S4051A\Output\S4051A\Application\Obj\extract #
#                    .o C:\Users\tony.tsou\Desktop\AmTRAN\Projects\15_K2\DevC #
#                    ode\2\Projects\S4051A\Output\S4051A\Application\Obj\fat. #
#                    o C:\Users\tony.tsou\Desktop\AmTRAN\Projects\15_K2\DevCo #
#                    de\2\Projects\S4051A\Output\S4051A\Application\Obj\fatti #
#                    me.o C:\Users\tony.tsou\Desktop\AmTRAN\Projects\15_K2\De #
#                    vCode\2\Projects\S4051A\Output\S4051A\Application\Obj\ff #
#                    .o C:\Users\tony.tsou\Desktop\AmTRAN\Projects\15_K2\DevC #
#                    ode\2\Projects\S4051A\Output\S4051A\Application\Obj\file #
#                    .o C:\Users\tony.tsou\Desktop\AmTRAN\Projects\15_K2\DevC #
#                    ode\2\Projects\S4051A\Output\S4051A\Application\Obj\fs.o #
#                     C:\Users\tony.tsou\Desktop\AmTRAN\Projects\15_K2\DevCod #
#                    e\2\Projects\S4051A\Output\S4051A\Application\Obj\heap_2 #
#                    .o C:\Users\tony.tsou\Desktop\AmTRAN\Projects\15_K2\DevC #
#                    ode\2\Projects\S4051A\Output\S4051A\Application\Obj\ioma #
#                    n.o C:\Users\tony.tsou\Desktop\AmTRAN\Projects\15_K2\Dev #
#                    Code\2\Projects\S4051A\Output\S4051A\Application\Obj\lis #
#                    t.o C:\Users\tony.tsou\Desktop\AmTRAN\Projects\15_K2\Dev #
#                    Code\2\Projects\S4051A\Output\S4051A\Application\Obj\ls. #
#                    o C:\Users\tony.tsou\Desktop\AmTRAN\Projects\15_K2\DevCo #
#                    de\2\Projects\S4051A\Output\S4051A\Application\Obj\misc. #
#                    o C:\Users\tony.tsou\Desktop\AmTRAN\Projects\15_K2\DevCo #
#                    de\2\Projects\S4051A\Output\S4051A\Application\Obj\mkfs. #
#                    o C:\Users\tony.tsou\Desktop\AmTRAN\Projects\15_K2\DevCo #
#                    de\2\Projects\S4051A\Output\S4051A\Application\Obj\parti #
#                    tion.o C:\Users\tony.tsou\Desktop\AmTRAN\Projects\15_K2\ #
#                    DevCode\2\Projects\S4051A\Output\S4051A\Application\Obj\ #
#                    plibc.o C:\Users\tony.tsou\Desktop\AmTRAN\Projects\15_K2 #
#                    \DevCode\2\Projects\S4051A\Output\S4051A\Application\Obj #
#                    \port.o C:\Users\tony.tsou\Desktop\AmTRAN\Projects\15_K2 #
#                    \DevCode\2\Projects\S4051A\Output\S4051A\Application\Obj #
#                    \portasm.o C:\Users\tony.tsou\Desktop\AmTRAN\Projects\15 #
#                    _K2\DevCode\2\Projects\S4051A\Output\S4051A\Application\ #
#                    Obj\queue.o C:\Users\tony.tsou\Desktop\AmTRAN\Projects\1 #
#                    5_K2\DevCode\2\Projects\S4051A\Output\S4051A\Application #
#                    \Obj\si_audio_component.o C:\Users\tony.tsou\Desktop\AmT #
#                    RAN\Projects\15_K2\DevCode\2\Projects\S4051A\Output\S405 #
#                    1A\Application\Obj\si_cbus_component.o                   #
#                    C:\Users\tony.tsou\Desktop\AmTRAN\Projects\15_K2\DevCode #
#                    \2\Projects\S4051A\Output\S4051A\Application\Obj\si_cbus #
#                    _rcp_parse.o C:\Users\tony.tsou\Desktop\AmTRAN\Projects\ #
#                    15_K2\DevCode\2\Projects\S4051A\Output\S4051A\Applicatio #
#                    n\Obj\si_cdc_component.o C:\Users\tony.tsou\Desktop\AmTR #
#                    AN\Projects\15_K2\DevCode\2\Projects\S4051A\Output\S4051 #
#                    A\Application\Obj\si_cdc_heac.o                          #
#                    C:\Users\tony.tsou\Desktop\AmTRAN\Projects\15_K2\DevCode #
#                    \2\Projects\S4051A\Output\S4051A\Application\Obj\si_cdc_ #
#                    main.o C:\Users\tony.tsou\Desktop\AmTRAN\Projects\15_K2\ #
#                    DevCode\2\Projects\S4051A\Output\S4051A\Application\Obj\ #
#                    si_cec_component.o C:\Users\tony.tsou\Desktop\AmTRAN\Pro #
#                    jects\15_K2\DevCode\2\Projects\S4051A\Output\S4051A\Appl #
#                    ication\Obj\si_cec_controller.o                          #
#                    C:\Users\tony.tsou\Desktop\AmTRAN\Projects\15_K2\DevCode #
#                    \2\Projects\S4051A\Output\S4051A\Application\Obj\si_cec_ #
#                    rx.o C:\Users\tony.tsou\Desktop\AmTRAN\Projects\15_K2\De #
#                    vCode\2\Projects\S4051A\Output\S4051A\Application\Obj\si #
#                    _cec_switch_api.o C:\Users\tony.tsou\Desktop\AmTRAN\Proj #
#                    ects\15_K2\DevCode\2\Projects\S4051A\Output\S4051A\Appli #
#                    cation\Obj\si_cec_timer.o C:\Users\tony.tsou\Desktop\AmT #
#                    RAN\Projects\15_K2\DevCode\2\Projects\S4051A\Output\S405 #
#                    1A\Application\Obj\si_cec_tx.o                           #
#                    C:\Users\tony.tsou\Desktop\AmTRAN\Projects\15_K2\DevCode #
#                    \2\Projects\S4051A\Output\S4051A\Application\Obj\si_conn #
#                    ection_monitor.o C:\Users\tony.tsou\Desktop\AmTRAN\Proje #
#                    cts\15_K2\DevCode\2\Projects\S4051A\Output\S4051A\Applic #
#                    ation\Obj\si_cra.o C:\Users\tony.tsou\Desktop\AmTRAN\Pro #
#                    jects\15_K2\DevCode\2\Projects\S4051A\Output\S4051A\Appl #
#                    ication\Obj\si_cra_cfg.o C:\Users\tony.tsou\Desktop\AmTR #
#                    AN\Projects\15_K2\DevCode\2\Projects\S4051A\Output\S4051 #
#                    A\Application\Obj\si_drv_3dgpio.o                        #
#                    C:\Users\tony.tsou\Desktop\AmTRAN\Projects\15_K2\DevCode #
#                    \2\Projects\S4051A\Output\S4051A\Application\Obj\si_drv_ #
#                    arc.o C:\Users\tony.tsou\Desktop\AmTRAN\Projects\15_K2\D #
#                    evCode\2\Projects\S4051A\Output\S4051A\Application\Obj\s #
#                    i_drv_audio.o C:\Users\tony.tsou\Desktop\AmTRAN\Projects #
#                    \15_K2\DevCode\2\Projects\S4051A\Output\S4051A\Applicati #
#                    on\Obj\si_drv_audio_mix.o C:\Users\tony.tsou\Desktop\AmT #
#                    RAN\Projects\15_K2\DevCode\2\Projects\S4051A\Output\S405 #
#                    1A\Application\Obj\si_drv_cbus.o                         #
#                    C:\Users\tony.tsou\Desktop\AmTRAN\Projects\15_K2\DevCode #
#                    \2\Projects\S4051A\Output\S4051A\Application\Obj\si_drv_ #
#                    cbus_main.o C:\Users\tony.tsou\Desktop\AmTRAN\Projects\1 #
#                    5_K2\DevCode\2\Projects\S4051A\Output\S4051A\Application #
#                    \Obj\si_drv_cpi.o C:\Users\tony.tsou\Desktop\AmTRAN\Proj #
#                    ects\15_K2\DevCode\2\Projects\S4051A\Output\S4051A\Appli #
#                    cation\Obj\si_drv_edid_rx.o                              #
#                    C:\Users\tony.tsou\Desktop\AmTRAN\Projects\15_K2\DevCode #
#                    \2\Projects\S4051A\Output\S4051A\Application\Obj\si_drv_ #
#                    gpio.o C:\Users\tony.tsou\Desktop\AmTRAN\Projects\15_K2\ #
#                    DevCode\2\Projects\S4051A\Output\S4051A\Application\Obj\ #
#                    si_drv_ipv.o C:\Users\tony.tsou\Desktop\AmTRAN\Projects\ #
#                    15_K2\DevCode\2\Projects\S4051A\Output\S4051A\Applicatio #
#                    n\Obj\si_drv_msw.o C:\Users\tony.tsou\Desktop\AmTRAN\Pro #
#                    jects\15_K2\DevCode\2\Projects\S4051A\Output\S4051A\Appl #
#                    ication\Obj\si_drv_msw_hpd.o                             #
#                    C:\Users\tony.tsou\Desktop\AmTRAN\Projects\15_K2\DevCode #
#                    \2\Projects\S4051A\Output\S4051A\Application\Obj\si_drv_ #
#                    msw_info.o C:\Users\tony.tsou\Desktop\AmTRAN\Projects\15 #
#                    _K2\DevCode\2\Projects\S4051A\Output\S4051A\Application\ #
#                    Obj\si_drv_nvram_sram.o C:\Users\tony.tsou\Desktop\AmTRA #
#                    N\Projects\15_K2\DevCode\2\Projects\S4051A\Output\S4051A #
#                    \Application\Obj\si_drv_osd.o                            #
#                    C:\Users\tony.tsou\Desktop\AmTRAN\Projects\15_K2\DevCode #
#                    \2\Projects\S4051A\Output\S4051A\Application\Obj\si_drv_ #
#                    osd_ram.o C:\Users\tony.tsou\Desktop\AmTRAN\Projects\15_ #
#                    K2\DevCode\2\Projects\S4051A\Output\S4051A\Application\O #
#                    bj\si_drv_osd_resource.o C:\Users\tony.tsou\Desktop\AmTR #
#                    AN\Projects\15_K2\DevCode\2\Projects\S4051A\Output\S4051 #
#                    A\Application\Obj\si_drv_osd_spi.o                       #
#                    C:\Users\tony.tsou\Desktop\AmTRAN\Projects\15_K2\DevCode #
#                    \2\Projects\S4051A\Output\S4051A\Application\Obj\si_drv_ #
#                    osd_window.o C:\Users\tony.tsou\Desktop\AmTRAN\Projects\ #
#                    15_K2\DevCode\2\Projects\S4051A\Output\S4051A\Applicatio #
#                    n\Obj\si_drv_repeater.o C:\Users\tony.tsou\Desktop\AmTRA #
#                    N\Projects\15_K2\DevCode\2\Projects\S4051A\Output\S4051A #
#                    \Application\Obj\si_drv_repeater_sha.o                   #
#                    C:\Users\tony.tsou\Desktop\AmTRAN\Projects\15_K2\DevCode #
#                    \2\Projects\S4051A\Output\S4051A\Application\Obj\si_drv_ #
#                    sii953x.o C:\Users\tony.tsou\Desktop\AmTRAN\Projects\15_ #
#                    K2\DevCode\2\Projects\S4051A\Output\S4051A\Application\O #
#                    bj\si_drv_tpg.o C:\Users\tony.tsou\Desktop\AmTRAN\Projec #
#                    ts\15_K2\DevCode\2\Projects\S4051A\Output\S4051A\Applica #
#                    tion\Obj\si_drv_tpi_access.o                             #
#                    C:\Users\tony.tsou\Desktop\AmTRAN\Projects\15_K2\DevCode #
#                    \2\Projects\S4051A\Output\S4051A\Application\Obj\si_drv_ #
#                    tpi_ddc_access.o C:\Users\tony.tsou\Desktop\AmTRAN\Proje #
#                    cts\15_K2\DevCode\2\Projects\S4051A\Output\S4051A\Applic #
#                    ation\Obj\si_drv_tpi_system.o                            #
#                    C:\Users\tony.tsou\Desktop\AmTRAN\Projects\15_K2\DevCode #
#                    \2\Projects\S4051A\Output\S4051A\Application\Obj\si_edid #
#                    _black_list.o C:\Users\tony.tsou\Desktop\AmTRAN\Projects #
#                    \15_K2\DevCode\2\Projects\S4051A\Output\S4051A\Applicati #
#                    on\Obj\si_edid_tx_analyzer.o                             #
#                    C:\Users\tony.tsou\Desktop\AmTRAN\Projects\15_K2\DevCode #
#                    \2\Projects\S4051A\Output\S4051A\Application\Obj\si_edid #
#                    _tx_component.o C:\Users\tony.tsou\Desktop\AmTRAN\Projec #
#                    ts\15_K2\DevCode\2\Projects\S4051A\Output\S4051A\Applica #
#                    tion\Obj\si_edid_tx_composer.o                           #
#                    C:\Users\tony.tsou\Desktop\AmTRAN\Projects\15_K2\DevCode #
#                    \2\Projects\S4051A\Output\S4051A\Application\Obj\si_edid #
#                    _tx_converter.o C:\Users\tony.tsou\Desktop\AmTRAN\Projec #
#                    ts\15_K2\DevCode\2\Projects\S4051A\Output\S4051A\Applica #
#                    tion\Obj\si_edid_tx_decode_h.o                           #
#                    C:\Users\tony.tsou\Desktop\AmTRAN\Projects\15_K2\DevCode #
#                    \2\Projects\S4051A\Output\S4051A\Application\Obj\si_edid #
#                    _tx_decode_l.o C:\Users\tony.tsou\Desktop\AmTRAN\Project #
#                    s\15_K2\DevCode\2\Projects\S4051A\Output\S4051A\Applicat #
#                    ion\Obj\si_edid_tx_fmf.o C:\Users\tony.tsou\Desktop\AmTR #
#                    AN\Projects\15_K2\DevCode\2\Projects\S4051A\Output\S4051 #
#                    A\Application\Obj\si_edid_tx_scaler.o                    #
#                    C:\Users\tony.tsou\Desktop\AmTRAN\Projects\15_K2\DevCode #
#                    \2\Projects\S4051A\Output\S4051A\Application\Obj\si_edid #
#                    _tx_tables.o C:\Users\tony.tsou\Desktop\AmTRAN\Projects\ #
#                    15_K2\DevCode\2\Projects\S4051A\Output\S4051A\Applicatio #
#                    n\Obj\si_eeprom.o C:\Users\tony.tsou\Desktop\AmTRAN\Proj #
#                    ects\15_K2\DevCode\2\Projects\S4051A\Output\S4051A\Appli #
#                    cation\Obj\si_gpio.o C:\Users\tony.tsou\Desktop\AmTRAN\P #
#                    rojects\15_K2\DevCode\2\Projects\S4051A\Output\S4051A\Ap #
#                    plication\Obj\si_i2c.o C:\Users\tony.tsou\Desktop\AmTRAN #
#                    \Projects\15_K2\DevCode\2\Projects\S4051A\Output\S4051A\ #
#                    Application\Obj\si_ipv_component.o                       #
#                    C:\Users\tony.tsou\Desktop\AmTRAN\Projects\15_K2\DevCode #
#                    \2\Projects\S4051A\Output\S4051A\Application\Obj\si_ipv_ #
#                    data.o C:\Users\tony.tsou\Desktop\AmTRAN\Projects\15_K2\ #
#                    DevCode\2\Projects\S4051A\Output\S4051A\Application\Obj\ #
#                    si_osal_timer.o C:\Users\tony.tsou\Desktop\AmTRAN\Projec #
#                    ts\15_K2\DevCode\2\Projects\S4051A\Output\S4051A\Applica #
#                    tion\Obj\si_osd_component.o                              #
#                    C:\Users\tony.tsou\Desktop\AmTRAN\Projects\15_K2\DevCode #
#                    \2\Projects\S4051A\Output\S4051A\Application\Obj\si_osd_ #
#                    handler.o C:\Users\tony.tsou\Desktop\AmTRAN\Projects\15_ #
#                    K2\DevCode\2\Projects\S4051A\Output\S4051A\Application\O #
#                    bj\si_osd_resource.res.o C:\Users\tony.tsou\Desktop\AmTR #
#                    AN\Projects\15_K2\DevCode\2\Projects\S4051A\Output\S4051 #
#                    A\Application\Obj\si_osd_win_listbox.o                   #
#                    C:\Users\tony.tsou\Desktop\AmTRAN\Projects\15_K2\DevCode #
#                    \2\Projects\S4051A\Output\S4051A\Application\Obj\si_osd_ #
#                    win_menu.o C:\Users\tony.tsou\Desktop\AmTRAN\Projects\15 #
#                    _K2\DevCode\2\Projects\S4051A\Output\S4051A\Application\ #
#                    Obj\si_osd_win_msgbox.o C:\Users\tony.tsou\Desktop\AmTRA #
#                    N\Projects\15_K2\DevCode\2\Projects\S4051A\Output\S4051A #
#                    \Application\Obj\si_osd_window.o                         #
#                    C:\Users\tony.tsou\Desktop\AmTRAN\Projects\15_K2\DevCode #
#                    \2\Projects\S4051A\Output\S4051A\Application\Obj\si_plat #
#                    form.o C:\Users\tony.tsou\Desktop\AmTRAN\Projects\15_K2\ #
#                    DevCode\2\Projects\S4051A\Output\S4051A\Application\Obj\ #
#                    si_repeater_component.o C:\Users\tony.tsou\Desktop\AmTRA #
#                    N\Projects\15_K2\DevCode\2\Projects\S4051A\Output\S4051A #
#                    \Application\Obj\si_repeater_isr.o                       #
#                    C:\Users\tony.tsou\Desktop\AmTRAN\Projects\15_K2\DevCode #
#                    \2\Projects\S4051A\Output\S4051A\Application\Obj\si_repe #
#                    ater_sha.o C:\Users\tony.tsou\Desktop\AmTRAN\Projects\15 #
#                    _K2\DevCode\2\Projects\S4051A\Output\S4051A\Application\ #
#                    Obj\si_rtpi_cbus.o C:\Users\tony.tsou\Desktop\AmTRAN\Pro #
#                    jects\15_K2\DevCode\2\Projects\S4051A\Output\S4051A\Appl #
#                    ication\Obj\si_rtpi_cec.o C:\Users\tony.tsou\Desktop\AmT #
#                    RAN\Projects\15_K2\DevCode\2\Projects\S4051A\Output\S405 #
#                    1A\Application\Obj\si_rtpi_component.o                   #
#                    C:\Users\tony.tsou\Desktop\AmTRAN\Projects\15_K2\DevCode #
#                    \2\Projects\S4051A\Output\S4051A\Application\Obj\si_rtpi #
#                    _default_reg.o C:\Users\tony.tsou\Desktop\AmTRAN\Project #
#                    s\15_K2\DevCode\2\Projects\S4051A\Output\S4051A\Applicat #
#                    ion\Obj\si_rtpi_register_functions.o                     #
#                    C:\Users\tony.tsou\Desktop\AmTRAN\Projects\15_K2\DevCode #
#                    \2\Projects\S4051A\Output\S4051A\Application\Obj\si_sac_ #
#                    main.o C:\Users\tony.tsou\Desktop\AmTRAN\Projects\15_K2\ #
#                    DevCode\2\Projects\S4051A\Output\S4051A\Application\Obj\ #
#                    si_sac_msg.o C:\Users\tony.tsou\Desktop\AmTRAN\Projects\ #
#                    15_K2\DevCode\2\Projects\S4051A\Output\S4051A\Applicatio #
#                    n\Obj\si_thx_component.o C:\Users\tony.tsou\Desktop\AmTR #
#                    AN\Projects\15_K2\DevCode\2\Projects\S4051A\Output\S4051 #
#                    A\Application\Obj\si_timer.o                             #
#                    C:\Users\tony.tsou\Desktop\AmTRAN\Projects\15_K2\DevCode #
#                    \2\Projects\S4051A\Output\S4051A\Application\Obj\si_tx_a #
#                    udio.o C:\Users\tony.tsou\Desktop\AmTRAN\Projects\15_K2\ #
#                    DevCode\2\Projects\S4051A\Output\S4051A\Application\Obj\ #
#                    si_tx_avi.o C:\Users\tony.tsou\Desktop\AmTRAN\Projects\1 #
#                    5_K2\DevCode\2\Projects\S4051A\Output\S4051A\Application #
#                    \Obj\si_tx_component.o C:\Users\tony.tsou\Desktop\AmTRAN #
#                    \Projects\15_K2\DevCode\2\Projects\S4051A\Output\S4051A\ #
#                    Application\Obj\si_tx_hdcp.o                             #
#                    C:\Users\tony.tsou\Desktop\AmTRAN\Projects\15_K2\DevCode #
#                    \2\Projects\S4051A\Output\S4051A\Application\Obj\si_tx_i #
#                    nfo_frm.o C:\Users\tony.tsou\Desktop\AmTRAN\Projects\15_ #
#                    K2\DevCode\2\Projects\S4051A\Output\S4051A\Application\O #
#                    bj\si_tx_video.o C:\Users\tony.tsou\Desktop\AmTRAN\Proje #
#                    cts\15_K2\DevCode\2\Projects\S4051A\Output\S4051A\Applic #
#                    ation\Obj\si_video_tables.o                              #
#                    C:\Users\tony.tsou\Desktop\AmTRAN\Projects\15_K2\DevCode #
#                    \2\Projects\S4051A\Output\S4051A\Application\Obj\sk953x_ #
#                    avr_repeater.o C:\Users\tony.tsou\Desktop\AmTRAN\Project #
#                    s\15_K2\DevCode\2\Projects\S4051A\Output\S4051A\Applicat #
#                    ion\Obj\sk_app_arc.o C:\Users\tony.tsou\Desktop\AmTRAN\P #
#                    rojects\15_K2\DevCode\2\Projects\S4051A\Output\S4051A\Ap #
#                    plication\Obj\sk_app_arc_demo.o                          #
#                    C:\Users\tony.tsou\Desktop\AmTRAN\Projects\15_K2\DevCode #
#                    \2\Projects\S4051A\Output\S4051A\Application\Obj\sk_app_ #
#                    audio_rx.o C:\Users\tony.tsou\Desktop\AmTRAN\Projects\15 #
#                    _K2\DevCode\2\Projects\S4051A\Output\S4051A\Application\ #
#                    Obj\sk_app_btst.o C:\Users\tony.tsou\Desktop\AmTRAN\Proj #
#                    ects\15_K2\DevCode\2\Projects\S4051A\Output\S4051A\Appli #
#                    cation\Obj\sk_app_cbus.o C:\Users\tony.tsou\Desktop\AmTR #
#                    AN\Projects\15_K2\DevCode\2\Projects\S4051A\Output\S4051 #
#                    A\Application\Obj\sk_app_cbus_cec.o                      #
#                    C:\Users\tony.tsou\Desktop\AmTRAN\Projects\15_K2\DevCode #
#                    \2\Projects\S4051A\Output\S4051A\Application\Obj\sk_app_ #
#                    cbus_demo.o C:\Users\tony.tsou\Desktop\AmTRAN\Projects\1 #
#                    5_K2\DevCode\2\Projects\S4051A\Output\S4051A\Application #
#                    \Obj\sk_app_cbus_wake_sequence.o                         #
#                    C:\Users\tony.tsou\Desktop\AmTRAN\Projects\15_K2\DevCode #
#                    \2\Projects\S4051A\Output\S4051A\Application\Obj\sk_app_ #
#                    cdc.o C:\Users\tony.tsou\Desktop\AmTRAN\Projects\15_K2\D #
#                    evCode\2\Projects\S4051A\Output\S4051A\Application\Obj\s #
#                    k_app_cdc_demo.o C:\Users\tony.tsou\Desktop\AmTRAN\Proje #
#                    cts\15_K2\DevCode\2\Projects\S4051A\Output\S4051A\Applic #
#                    ation\Obj\sk_app_cec.o C:\Users\tony.tsou\Desktop\AmTRAN #
#                    \Projects\15_K2\DevCode\2\Projects\S4051A\Output\S4051A\ #
#                    Application\Obj\sk_app_cec_demo.o                        #
#                    C:\Users\tony.tsou\Desktop\AmTRAN\Projects\15_K2\DevCode #
#                    \2\Projects\S4051A\Output\S4051A\Application\Obj\sk_app_ #
#                    cec_logger.o C:\Users\tony.tsou\Desktop\AmTRAN\Projects\ #
#                    15_K2\DevCode\2\Projects\S4051A\Output\S4051A\Applicatio #
#                    n\Obj\sk_app_demo.o C:\Users\tony.tsou\Desktop\AmTRAN\Pr #
#                    ojects\15_K2\DevCode\2\Projects\S4051A\Output\S4051A\App #
#                    lication\Obj\sk_app_device.o                             #
#                    C:\Users\tony.tsou\Desktop\AmTRAN\Projects\15_K2\DevCode #
#                    \2\Projects\S4051A\Output\S4051A\Application\Obj\sk_app_ #
#                    diag.o C:\Users\tony.tsou\Desktop\AmTRAN\Projects\15_K2\ #
#                    DevCode\2\Projects\S4051A\Output\S4051A\Application\Obj\ #
#                    sk_app_edid.o C:\Users\tony.tsou\Desktop\AmTRAN\Projects #
#                    \15_K2\DevCode\2\Projects\S4051A\Output\S4051A\Applicati #
#                    on\Obj\sk_app_ediddata.o C:\Users\tony.tsou\Desktop\AmTR #
#                    AN\Projects\15_K2\DevCode\2\Projects\S4051A\Output\S4051 #
#                    A\Application\Obj\sk_app_emu_main.o                      #
#                    C:\Users\tony.tsou\Desktop\AmTRAN\Projects\15_K2\DevCode #
#                    \2\Projects\S4051A\Output\S4051A\Application\Obj\sk_app_ #
#                    gpio.o C:\Users\tony.tsou\Desktop\AmTRAN\Projects\15_K2\ #
#                    DevCode\2\Projects\S4051A\Output\S4051A\Application\Obj\ #
#                    sk_app_infrared.o C:\Users\tony.tsou\Desktop\AmTRAN\Proj #
#                    ects\15_K2\DevCode\2\Projects\S4051A\Output\S4051A\Appli #
#                    cation\Obj\sk_app_ipv.o C:\Users\tony.tsou\Desktop\AmTRA #
#                    N\Projects\15_K2\DevCode\2\Projects\S4051A\Output\S4051A #
#                    \Application\Obj\sk_app_ipv_demo.o                       #
#                    C:\Users\tony.tsou\Desktop\AmTRAN\Projects\15_K2\DevCode #
#                    \2\Projects\S4051A\Output\S4051A\Application\Obj\sk_app_ #
#                    msw_demo.o C:\Users\tony.tsou\Desktop\AmTRAN\Projects\15 #
#                    _K2\DevCode\2\Projects\S4051A\Output\S4051A\Application\ #
#                    Obj\sk_app_repeater.o C:\Users\tony.tsou\Desktop\AmTRAN\ #
#                    Projects\15_K2\DevCode\2\Projects\S4051A\Output\S4051A\A #
#                    pplication\Obj\sk_app_setup.o                            #
#                    C:\Users\tony.tsou\Desktop\AmTRAN\Projects\15_K2\DevCode #
#                    \2\Projects\S4051A\Output\S4051A\Application\Obj\sk_app_ #
#                    support.o C:\Users\tony.tsou\Desktop\AmTRAN\Projects\15_ #
#                    K2\DevCode\2\Projects\S4051A\Output\S4051A\Application\O #
#                    bj\sk_app_switch.o C:\Users\tony.tsou\Desktop\AmTRAN\Pro #
#                    jects\15_K2\DevCode\2\Projects\S4051A\Output\S4051A\Appl #
#                    ication\Obj\sk_app_thx.o C:\Users\tony.tsou\Desktop\AmTR #
#                    AN\Projects\15_K2\DevCode\2\Projects\S4051A\Output\S4051 #
#                    A\Application\Obj\sk_app_tv.o                            #
#                    C:\Users\tony.tsou\Desktop\AmTRAN\Projects\15_K2\DevCode #
#                    \2\Projects\S4051A\Output\S4051A\Application\Obj\sk_app_ #
#                    tx.o C:\Users\tony.tsou\Desktop\AmTRAN\Projects\15_K2\De #
#                    vCode\2\Projects\S4051A\Output\S4051A\Application\Obj\st #
#                    artup_stm32f411xe.o C:\Users\tony.tsou\Desktop\AmTRAN\Pr #
#                    ojects\15_K2\DevCode\2\Projects\S4051A\Output\S4051A\App #
#                    lication\Obj\stm32f4xx_dma.o                             #
#                    C:\Users\tony.tsou\Desktop\AmTRAN\Projects\15_K2\DevCode #
#                    \2\Projects\S4051A\Output\S4051A\Application\Obj\stm32f4 #
#                    xx_exti.o C:\Users\tony.tsou\Desktop\AmTRAN\Projects\15_ #
#                    K2\DevCode\2\Projects\S4051A\Output\S4051A\Application\O #
#                    bj\stm32f4xx_gpio.o C:\Users\tony.tsou\Desktop\AmTRAN\Pr #
#                    ojects\15_K2\DevCode\2\Projects\S4051A\Output\S4051A\App #
#                    lication\Obj\stm32f4xx_i2c.o                             #
#                    C:\Users\tony.tsou\Desktop\AmTRAN\Projects\15_K2\DevCode #
#                    \2\Projects\S4051A\Output\S4051A\Application\Obj\stm32f4 #
#                    xx_it.o C:\Users\tony.tsou\Desktop\AmTRAN\Projects\15_K2 #
#                    \DevCode\2\Projects\S4051A\Output\S4051A\Application\Obj #
#                    \stm32f4xx_rcc.o C:\Users\tony.tsou\Desktop\AmTRAN\Proje #
#                    cts\15_K2\DevCode\2\Projects\S4051A\Output\S4051A\Applic #
#                    ation\Obj\stm32f4xx_spi.o C:\Users\tony.tsou\Desktop\AmT #
#                    RAN\Projects\15_K2\DevCode\2\Projects\S4051A\Output\S405 #
#                    1A\Application\Obj\stm32f4xx_syscfg.o                    #
#                    C:\Users\tony.tsou\Desktop\AmTRAN\Projects\15_K2\DevCode #
#                    \2\Projects\S4051A\Output\S4051A\Application\Obj\stm32f4 #
#                    xx_tim.o C:\Users\tony.tsou\Desktop\AmTRAN\Projects\15_K #
#                    2\DevCode\2\Projects\S4051A\Output\S4051A\Application\Ob #
#                    j\stm32f4xx_usart.o C:\Users\tony.tsou\Desktop\AmTRAN\Pr #
#                    ojects\15_K2\DevCode\2\Projects\S4051A\Output\S4051A\App #
#                    lication\Obj\system_stm32f4xx.o                          #
#                    C:\Users\tony.tsou\Desktop\AmTRAN\Projects\15_K2\DevCode #
#                    \2\Projects\S4051A\Output\S4051A\Application\Obj\tasks.o #
#                     C:\Users\tony.tsou\Desktop\AmTRAN\Projects\15_K2\DevCod #
#                    e\2\Projects\S4051A\Output\S4051A\Application\Obj\time.o #
#                     C:\Users\tony.tsou\Desktop\AmTRAN\Projects\15_K2\DevCod #
#                    e\2\Projects\S4051A\Output\S4051A\Application\Obj\timers #
#                    .o C:\Users\tony.tsou\Desktop\AmTRAN\Projects\15_K2\DevC #
#                    ode\2\Projects\S4051A\Output\S4051A\Application\Obj\ui.o #
#                     C:\Users\tony.tsou\Desktop\AmTRAN\Projects\15_K2\DevCod #
#                    e\2\Projects\S4051A\Output\S4051A\Application\Obj\usb_bs #
#                    p.o C:\Users\tony.tsou\Desktop\AmTRAN\Projects\15_K2\Dev #
#                    Code\2\Projects\S4051A\Output\S4051A\Application\Obj\usb #
#                    _core.o C:\Users\tony.tsou\Desktop\AmTRAN\Projects\15_K2 #
#                    \DevCode\2\Projects\S4051A\Output\S4051A\Application\Obj #
#                    \usb_dcd.o C:\Users\tony.tsou\Desktop\AmTRAN\Projects\15 #
#                    _K2\DevCode\2\Projects\S4051A\Output\S4051A\Application\ #
#                    Obj\usb_dcd_int.o C:\Users\tony.tsou\Desktop\AmTRAN\Proj #
#                    ects\15_K2\DevCode\2\Projects\S4051A\Output\S4051A\Appli #
#                    cation\Obj\usb_hcd.o C:\Users\tony.tsou\Desktop\AmTRAN\P #
#                    rojects\15_K2\DevCode\2\Projects\S4051A\Output\S4051A\Ap #
#                    plication\Obj\usb_hcd_int.o                              #
#                    C:\Users\tony.tsou\Desktop\AmTRAN\Projects\15_K2\DevCode #
#                    \2\Projects\S4051A\Output\S4051A\Application\Obj\usb_hos #
#                    t_device.o C:\Users\tony.tsou\Desktop\AmTRAN\Projects\15 #
#                    _K2\DevCode\2\Projects\S4051A\Output\S4051A\Application\ #
#                    Obj\usbd_cdc_core.o C:\Users\tony.tsou\Desktop\AmTRAN\Pr #
#                    ojects\15_K2\DevCode\2\Projects\S4051A\Output\S4051A\App #
#                    lication\Obj\usbd_cdc_vcp.o                              #
#                    C:\Users\tony.tsou\Desktop\AmTRAN\Projects\15_K2\DevCode #
#                    \2\Projects\S4051A\Output\S4051A\Application\Obj\usbd_co #
#                    re.o C:\Users\tony.tsou\Desktop\AmTRAN\Projects\15_K2\De #
#                    vCode\2\Projects\S4051A\Output\S4051A\Application\Obj\us #
#                    bd_desc.o C:\Users\tony.tsou\Desktop\AmTRAN\Projects\15_ #
#                    K2\DevCode\2\Projects\S4051A\Output\S4051A\Application\O #
#                    bj\usbd_ioreq.o C:\Users\tony.tsou\Desktop\AmTRAN\Projec #
#                    ts\15_K2\DevCode\2\Projects\S4051A\Output\S4051A\Applica #
#                    tion\Obj\usbd_req.o C:\Users\tony.tsou\Desktop\AmTRAN\Pr #
#                    ojects\15_K2\DevCode\2\Projects\S4051A\Output\S4051A\App #
#                    lication\Obj\usbd_usr.o C:\Users\tony.tsou\Desktop\AmTRA #
#                    N\Projects\15_K2\DevCode\2\Projects\S4051A\Output\S4051A #
#                    \Application\Obj\usbh_core.o                             #
#                    C:\Users\tony.tsou\Desktop\AmTRAN\Projects\15_K2\DevCode #
#                    \2\Projects\S4051A\Output\S4051A\Application\Obj\usbh_hc #
#                    s.o C:\Users\tony.tsou\Desktop\AmTRAN\Projects\15_K2\Dev #
#                    Code\2\Projects\S4051A\Output\S4051A\Application\Obj\usb #
#                    h_ioreq.o C:\Users\tony.tsou\Desktop\AmTRAN\Projects\15_ #
#                    K2\DevCode\2\Projects\S4051A\Output\S4051A\Application\O #
#                    bj\usbh_msc_bot.o C:\Users\tony.tsou\Desktop\AmTRAN\Proj #
#                    ects\15_K2\DevCode\2\Projects\S4051A\Output\S4051A\Appli #
#                    cation\Obj\usbh_msc_core.o C:\Users\tony.tsou\Desktop\Am #
#                    TRAN\Projects\15_K2\DevCode\2\Projects\S4051A\Output\S40 #
#                    51A\Application\Obj\usbh_msc_fatfs.o                     #
#                    C:\Users\tony.tsou\Desktop\AmTRAN\Projects\15_K2\DevCode #
#                    \2\Projects\S4051A\Output\S4051A\Application\Obj\usbh_ms #
#                    c_fs_interface.o C:\Users\tony.tsou\Desktop\AmTRAN\Proje #
#                    cts\15_K2\DevCode\2\Projects\S4051A\Output\S4051A\Applic #
#                    ation\Obj\usbh_msc_scsi.o C:\Users\tony.tsou\Desktop\AmT #
#                    RAN\Projects\15_K2\DevCode\2\Projects\S4051A\Output\S405 #
#                    1A\Application\Obj\usbh_stdreq.o                         #
#                    C:\Users\tony.tsou\Desktop\AmTRAN\Projects\15_K2\DevCode #
#                    \2\Projects\S4051A\Output\S4051A\Application\Obj\usbh_us #
#                    r.o -o C:\Users\tony.tsou\Desktop\AmTRAN\Projects\15_K2\ #
#                    DevCode\2\Projects\S4051A\Output\S4051A\s4051c_app.out   #
#                    --map C:\Users\tony.tsou\Desktop\AmTRAN\Projects\15_K2\D #
#                    evCode\2\Projects\S4051A\EWARM\..\Output\S4051A\Applicat #
#                    ion\List\s4051c_app.map --config                         #
#                    C:\Users\tony.tsou\Desktop\AmTRAN\Projects\15_K2\DevCode #
#                    \2\Projects\S4051A\EWARM\..\..\..\Utilities\mainstream_v #
#                    1\stm32f411\icf\stm32f411xe_flash.icf --entry            #
#                    __iar_program_start --inline --vfe                       #
#                                                                             #
#                                                                             #
###############################################################################

*******************************************************************************
*** RUNTIME MODEL ATTRIBUTES
***

CppFlavor       = *
__SystemLibrary = DLib


*******************************************************************************
*** PLACEMENT SUMMARY
***

"A1":  place at 0x08008000 { ro section .intvec };
"P1":  place in [from 0x08008000 to 0x0803ffff] { ro };
"P2":  place in [from 0x20000000 to 0x2001ffff] { rw, block CSTACK, block HEAP };

  Section            Kind        Address     Size  Object
  -------            ----        -------     ----  ------
"A1":                                       0x198
  .intvec            ro code  0x08008000    0x198  startup_stm32f411xe.o [1]
                            - 0x08008198    0x198

"P1":                                     0x25c28
  .rodata            const    0x08008198   0x27f8  cs49844.o [1]
  .text              ro code  0x0800a990   0x1f28  cs49844.o [1]
  .text              ro code  0x0800c8b8    0x2c8  cs49844_spi.o [1]
  .text              ro code  0x0800cb80    0x19c  SPILowLevel.o [1]
  .text              ro code  0x0800cd1c    0x520  queue.o [1]
  .text              ro code  0x0800d23c    0x840  tasks.o [1]
  .text              ro code  0x0800da7c    0x154  Debug.o [1]
  .text              ro code  0x0800dbd0     0xe4  heap_2.o [1]
  .text              ro code  0x0800dcb4      0xc  GPIOMiddleLevel.o [1]
  .text              ro code  0x0800dcc0     0xa0  ext_flash_driver.o [1]
  .text              ro code  0x0800dd60      0xe  stm32f4xx_spi.o [1]
  .text              ro code  0x0800dd6e     0x22  zero_init3.o [5]
  CODE               ro code  0x0800dd90     0xb0  portasm.o [1]
  .text              ro code  0x0800de40    0x180  port.o [1]
  .text              ro code  0x0800dfc0     0x88  list.o [1]
  .text              ro code  0x0800e048     0x76  ABImemcpy.o [5]
  .text              ro code  0x0800e0be      0xe  usbd_usr.o [1]
  .text              ro code  0x0800e0cc    0x30c  timers.o [1]
  .text              ro code  0x0800e3d8    0x1dc  usb_host_device.o [1]
  .text              ro code  0x0800e5b4    0x1f4  GPIOLowLevel.o [1]
  .text              ro code  0x0800e7a8    0x1d6  usb_dcd.o [1]
  USER_PARMS         const    0x0800e97e      0x1  SystemDefaultParams.o [1]
  .text              ro code  0x0800e980    0x8ac  usb_core.o [1]
  .text              ro code  0x0800f22c    0x292  usbd_core.o [1]
  .text              ro code  0x0800f4c0     0xa4  stm32f4xx_gpio.o [1]
  .text              ro code  0x0800f564     0xfc  stm32f4xx_rcc.o [1]
  .text              ro code  0x0800f660     0xca  usb_bsp.o [1]
  .text              ro code  0x0800f72c    0x3e2  usbd_req.o [1]
  .text              ro code  0x0800fb0e     0x7a  usbd_ioreq.o [1]
  .text              ro code  0x0800fb88     0x8c  misc.o [1]
  .text              ro code  0x0800fc14   0x1b6c  AudioDeviceManager.o [1]
  .text              ro code  0x08011780   0x1458  si_cdc_main.o [1]
  .text              ro code  0x08012bd8    0xde0  si_cdc_heac.o [1]
  .text              ro code  0x080139b8      0x6  ABImemclr4.o [5]
  .text              ro code  0x080139c0     0x3a  ABImemset48.o [5]
  .text              ro code  0x080139fc    0x534  si_drv_cpi.o [1]
  .text              ro code  0x08013f30    0x434  si_cra.o [1]
  .text              ro code  0x08014364     0x4a  si_osal_timer.o [1]
  .text              ro code  0x080143b0      0x6  ABImemclr.o [5]
  .text              ro code  0x080143b8    0x8c8  I2C1LowLevel.o [1]
  .text              ro code  0x08014c80    0x108  si_timer.o [1]
  .text              ro code  0x08014d88     0x66  ABImemset.o [5]
  .text              ro code  0x08014df0    0x1f4  stm32f4xx_i2c.o [1]
  .text              ro code  0x08014fe4    0x1f0  stm32f4xx_dma.o [1]
  .text              ro code  0x080151d4    0xfdc  si_edid_tx_composer.o [1]
  .text              ro code  0x080161b0    0x428  si_edid_tx_analyzer.o [1]
  .text              ro code  0x080165d8     0x62  memcmp.o [5]
  .text              ro code  0x0801663c    0x3cc  si_edid_tx_component.o [1]
  .text              ro code  0x08016a08    0x2fe  si_edid_tx_decode_h.o [1]
  .text              ro code  0x08016d08    0x524  si_edid_tx_fmf.o [1]
  .text              ro code  0x0801722c    0x31c  si_edid_tx_converter.o [1]
  .text              ro code  0x08017548    0x214  si_drv_tpi_ddc_access.o [1]
  .text              ro code  0x0801775c    0xf2c  si_edid_tx_decode_l.o [1]
  .text              ro code  0x08018688    0xa68  sk_app_tx.o [1]
  .text              ro code  0x080190f0     0xa4  si_edid_black_list.o [1]
  .text              ro code  0x08019194    0x388  si_edid_tx_scaler.o [1]
  .text              ro code  0x0801951c    0x698  si_tx_component.o [1]
  .text              ro code  0x08019bb4    0x862  si_drv_tpi_system.o [1]
  .text              ro code  0x0801a416     0x58  si_drv_audio_mix.o [1]
  .text              ro code  0x0801a470    0x6d4  si_drv_audio.o [1]
  .text              ro code  0x0801ab44    0x678  si_repeater_component.o [1]
  .text              ro code  0x0801b1bc     0xce  si_drv_tpg.o [1]
  .text              ro code  0x0801b28c    0x28a  si_drv_edid_rx.o [1]
  .text              ro code  0x0801b518    0x274  sk_app_cec.o [1]
  .text              ro code  0x0801b78c    0x174  si_cec_tx.o [1]
  .text              ro code  0x0801b900    0x3ac  sk_app_repeater.o [1]
  .text              ro code  0x0801bcac    0x3c8  si_drv_repeater.o [1]
  .text              ro code  0x0801c074    0x918  si_cec_controller.o [1]
  .text              ro code  0x0801c98c    0x558  si_cec_component.o [1]
  .text              ro code  0x0801cee4    0x25c  si_drv_nvram_sram.o [1]
  .text              ro code  0x0801d140    0x344  si_drv_msw_info.o [1]
  .text              ro code  0x0801d484    0x4f8  si_drv_msw.o [1]
  .text              ro code  0x0801d97c    0x770  si_tx_hdcp.o [1]
  .text              ro code  0x0801e0ec    0x126  si_drv_tpi_access.o [1]
  .text              ro code  0x0801e214    0x364  si_tx_info_frm.o [1]
  .text              ro code  0x0801e578    0x134  si_tx_avi.o [1]
  .text              ro code  0x0801e6ac    0x400  si_tx_audio.o [1]
  .text              ro code  0x0801eaac    0x1d0  si_drv_repeater_sha.o [1]
  .text              ro code  0x0801ec7c     0xac  si_repeater_sha.o [1]
  .text              ro code  0x0801ed28    0x130  si_connection_monitor.o [1]
  .text              ro code  0x0801ee58    0x15c  si_repeater_isr.o [1]
  .text              ro code  0x0801efb4     0x20  si_cdc_component.o [1]
  .text              ro code  0x0801efd4    0x324  si_cec_switch_api.o [1]
  .text              ro code  0x0801f2f8    0x990  si_sac_main.o [1]
  .text              ro code  0x0801fc88    0x258  si_cec_rx.o [1]
  .text              ro code  0x0801fee0    0x384  sk_app_cbus_cec.o [1]
  .text              ro code  0x08020264    0x2f8  sk_app_arc.o [1]
  .text              ro code  0x0802055c    0x59c  sk953x_avr_repeater.o [1]
  .text              ro code  0x08020af8    0x2ae  si_drv_msw_hpd.o [1]
  .text              ro code  0x08020da8     0x36  strlen.o [5]
  .text              ro code  0x08020de0    0x5bc  si_drv_sii953x.o [1]
  .text              ro code  0x0802139c    0x130  sk_app_cbus.o [1]
  .text              ro code  0x080214cc    0xd60  si_video_tables.o [1]
  .text              ro code  0x0802222c     0xec  si_cec_timer.o [1]
  .text              ro code  0x08022318    0x136  si_sac_msg.o [1]
  .text              ro code  0x08022450    0x190  sk_app_audio_rx.o [1]
  .text              ro code  0x080225e0    0x280  si_cbus_component.o [1]
  .text              ro code  0x08022860      0x8  si_cbus_rcp_parse.o [1]
  .text              ro code  0x08022868     0x64  si_drv_arc.o [1]
  .text              ro code  0x080228cc     0x98  sk_app_tv.o [1]
  .text              ro code  0x08022964     0x5c  sk_app_thx.o [1]
  .text              ro code  0x080229c0    0x714  sk_app_switch.o [1]
  .text              ro code  0x080230d4    0x258  sk_app_support.o [1]
  .text              ro code  0x0802332c    0x3b0  sk_app_device.o [1]
  .text              ro code  0x080236dc    0x160  sk_app_ipv.o [1]
  .text              ro code  0x0802383c    0x378  si_rtpi_component.o [1]
  .text              ro code  0x08023bb4     0x20  sk_app_setup.o [1]
  .text              ro code  0x08023bd4     0x20  sk_app_demo.o [1]
  .text              ro code  0x08023bf4     0xc4  si_platform.o [1]
  .text              ro code  0x08023cb8    0x330  si_drv_gpio.o [1]
  .text              ro code  0x08023fe8    0x3ae  si_drv_ipv.o [1]
  .text              ro code  0x08024396     0x8a  si_gpio.o [1]
  .text              ro code  0x08024420    0x1bc  si_audio_component.o [1]
  .text              ro code  0x080245dc     0xb0  si_drv_cbus_main.o [1]
  .text              ro code  0x0802468c     0x2e  si_drv_cbus.o [1]
  .text              ro code  0x080246bc    0x198  si_thx_component.o [1]
  .text              ro code  0x08024854    0x7f2  si_ipv_component.o [1]
  .text              ro code  0x08025046     0x16  si_eeprom.o [1]
  .text              ro code  0x0802505c      0x4  sk_app_gpio.o [1]
  .text              ro code  0x08025060     0xc4  sk_app_cdc.o [1]
  .text              ro code  0x08025124     0x42  strcmp.o [5]
  .text              ro code  0x08025168    0x3b8  si_rtpi_register_functions.o [1]
  .text              ro code  0x08025520     0x88  stm32f4xx_exti.o [1]
  .text              ro code  0x080255a8     0x28  stm32f4xx_syscfg.o [1]
  .text              ro code  0x080255d0     0x2c  si_i2c.o [1]
  .text              ro code  0x080255fc     0xd4  si_rtpi_cbus.o [1]
  .text              ro code  0x080256d0    0x18e  si_rtpi_cec.o [1]
  .text              ro code  0x08025860    0xc44  HMI_Service.o [1]
  .text              ro code  0x080264a4    0xc28  usb_hcd_int.o [1]
  .text              ro code  0x080270cc    0x824  BTHandler.o [1]
  .text              ro code  0x080278f0    0x6dc  HT68F30.o [1]
  .text              ro code  0x08027fcc     0x44  HT68F30_i2c.o [1]
  .text              ro code  0x08028010    0x6a8  IRLowLevelDecoder.o [1]
  .text              ro code  0x080286b8    0x694  IRCmdHandler.o [1]
  .text              ro code  0x08028d4c    0x630  UIDeviceManager.o [1]
  .text              ro code  0x0802937c    0x594  AudioSystemHandler.o [1]
  .text              ro code  0x08029910    0x570  I2C2LowLevel.o [1]
  .text              ro code  0x08029e80    0x484  usb_dcd_int.o [1]
  .text              ro code  0x0802a304    0x428  EepromDriver.o [1]
  .text              ro code  0x0802a72c    0x3cc  CommandsManager.o [1]
  .text              ro code  0x0802aaf8    0x3a0  RFHandler.o [1]
  .text              ro code  0x0802ae98    0x36c  StorageDeviceDriver.o [1]
  .text              ro code  0x0802b204    0x244  cs8422.o [1]
  .text              ro code  0x0802b448     0xd8  CS8422_i2c.o [1]
  .text              ro code  0x0802b520    0x226  stm32f4xx_tim.o [1]
  .text              ro code  0x0802b748    0x224  usbd_cdc_core.o [1]
  .text              ro code  0x0802b96c    0x220  PowerHandler.o [1]
  .text              ro code  0x0802bb8c    0x1e0  IRLowLevel.o [1]
  .text              ro code  0x0802bd6c     0xbc  VirtualTimer.o [1]
  .text              ro code  0x0802be28    0x154  ButtonCmdDispatcher.o [1]
  .text              ro code  0x0802bf7c    0x128  TAS5727.o [1]
  .text              ro code  0x0802c0a4     0xcc  TAS5727_i2c.o [1]
  .text              ro code  0x0802c170    0x118  usbd_desc.o [1]
  .text              ro code  0x0802c288    0x114  cs5346.o [1]
  .text              ro code  0x0802c39c     0xa4  CS5346_i2c.o [1]
  .text              ro code  0x0802c440    0x110  system_stm32f4xx.o [1]
  .rodata            const    0x0802c550    0x100  sk_app_ediddata.o [1]
  .text              ro code  0x0802c650     0xd4  UART_LowLevel.o [1]
  .text              ro code  0x0802c724     0xc8  StorageDeviceManager.o [1]
  .text              ro code  0x0802c7ec     0xc4  UARTCmdDispatcher.o [1]
  .rodata            const    0x0802c8b0     0xc0  si_edid_tx_tables.o [1]
  .text              ro code  0x0802c970     0xb8  TAS5713.o [1]
  .text              ro code  0x0802ca28     0x68  TAS5713_i2c.o [1]
  .text              ro code  0x0802ca90     0xb4  usbd_cdc_vcp.o [1]
  .text              ro code  0x0802cb44     0xb0  App_main.o [1]
  .text              ro code  0x0802cbf4     0x98  CardLowLevel_Platform.o [1]
  .text              ro code  0x0802cc8c     0x1e  CardLowLevel.o [1]
  .text              ro code  0x0802ccaa     0xa0  packbits_init3.o [5]
  .rodata            const    0x0802cd4c     0x8c  AudioDeviceManager.o [1]
  .text              ro code  0x0802cdd8     0x7c  CS8422_ISR_Handler.o [1]
  .text              ro code  0x0802ce54     0x5e  stm32f4xx_it.o [1]
  .text              ro code  0x0802ceb4     0x5a  AmplifierDeviceManager.o [1]
  .rodata            const    0x0802cf10     0x48  HT68F30.o [1]
  .rodata            const    0x0802cf58     0x44  si_video_tables.o [1]
  .rodata            const    0x0802cf9c     0x30  cs8422.o [1]
  .text              ro code  0x0802cfcc     0x2c  data_init3.o [5]
  .rodata            const    0x0802cff8     0x28  PowerHandler.o [1]
  .iar.init_table    const    0x0802d020     0x2c  - Linker created -
  .rodata            const    0x0802d04c     0x20  si_ipv_data.o [1]
  .rodata            const    0x0802d06c     0x1c  AudioSystemHandler.o [1]
  .text              ro code  0x0802d088     0x1a  fpinit_M.o [4]
  .rodata            const    0x0802d0a4     0x18  IRCmdHandler.o [1]
  .text              ro code  0x0802d0bc     0x16  cmain.o [5]
  .text              ro code  0x0802d0d2      0x4  exit.o [3]
  .text              ro code  0x0802d0d8      0xa  cexit.o [5]
  .text              ro code  0x0802d0e4      0xc  XXexit.o [5]
  .rodata            const    0x0802d0f0     0x14  BTHandler.o [1]
  .text              ro code  0x0802d104     0x12  usbh_core.o [1]
  .rodata            const    0x0802d118     0x10  HMI_Service.o [1]
  .rodata            const    0x0802d128     0x10  StorageDeviceManager.o [1]
  .rodata            const    0x0802d138     0x10  sk953x_avr_repeater.o [1]
  .text              ro code  0x0802d148     0x10  startup_stm32f411xe.o [1]
  .rodata            const    0x0802d158      0xc  AmplifierDeviceManager.o [1]
  .rodata            const    0x0802d164      0xc  ButtonCmdDispatcher.o [1]
  .rodata            const    0x0802d170      0xc  IRLowLevel.o [1]
  .rodata            const    0x0802d17c      0xc  UIDeviceManager.o [1]
  .rodata            const    0x0802d188      0xc  cs5346.o [1]
  .rodata            const    0x0802d194      0xc  usb_host_device.o [1]
  .text              ro code  0x0802d1a0      0xc  cstartup_M.o [5]
  .rodata            const    0x0802d1ac      0x8  GPIOLowLevel.o [1]
  .rodata            const    0x0802d1b4      0x8  RFHandler.o [1]
  .rodata            const    0x0802d1bc      0x8  buildtime.o [1]
  .rodata            const    0x0802d1c4      0x4  CommandsManager.o [1]
  .text              ro code  0x0802d1c8      0x4  startup_stm32f411xe.o [1]
  .text              ro code  0x0802d1cc      0x4  startup_stm32f411xe.o [1]
  .text              ro code  0x0802d1d0      0x4  startup_stm32f411xe.o [1]
  .text              ro code  0x0802d1d4      0x4  startup_stm32f411xe.o [1]
  .text              ro code  0x0802d1d8      0x4  startup_stm32f411xe.o [1]
  .text              ro code  0x0802d1dc      0x4  startup_stm32f411xe.o [1]
  .text              ro code  0x0802d1e0      0x4  startup_stm32f411xe.o [1]
  .text              ro code  0x0802d1e4      0x4  startup_stm32f411xe.o [1]
  .text              ro code  0x0802d1e8      0x4  startup_stm32f411xe.o [1]
  .text              ro code  0x0802d1ec      0x4  startup_stm32f411xe.o [1]
  .text              ro code  0x0802d1f0      0x4  startup_stm32f411xe.o [1]
  .text              ro code  0x0802d1f4      0x4  startup_stm32f411xe.o [1]
  .text              ro code  0x0802d1f8      0x4  startup_stm32f411xe.o [1]
  .text              ro code  0x0802d1fc      0x4  startup_stm32f411xe.o [1]
  .text              ro code  0x0802d200      0x4  startup_stm32f411xe.o [1]
  .text              ro code  0x0802d204      0x4  startup_stm32f411xe.o [1]
  .text              ro code  0x0802d208      0x4  startup_stm32f411xe.o [1]
  .text              ro code  0x0802d20c      0x4  startup_stm32f411xe.o [1]
  .text              ro code  0x0802d210      0x4  startup_stm32f411xe.o [1]
  .text              ro code  0x0802d214      0x4  startup_stm32f411xe.o [1]
  .text              ro code  0x0802d218      0x4  startup_stm32f411xe.o [1]
  .text              ro code  0x0802d21c      0x4  startup_stm32f411xe.o [1]
  .text              ro code  0x0802d220      0x4  startup_stm32f411xe.o [1]
  .text              ro code  0x0802d224      0x4  startup_stm32f411xe.o [1]
  .text              ro code  0x0802d228      0x4  startup_stm32f411xe.o [1]
  .text              ro code  0x0802d22c      0x4  startup_stm32f411xe.o [1]
  .text              ro code  0x0802d230      0x4  startup_stm32f411xe.o [1]
  .text              ro code  0x0802d234      0x4  startup_stm32f411xe.o [1]
  .text              ro code  0x0802d238      0x4  startup_stm32f411xe.o [1]
  .text              ro code  0x0802d23c      0x4  startup_stm32f411xe.o [1]
  .text              ro code  0x0802d240      0x4  startup_stm32f411xe.o [1]
  .text              ro code  0x0802d244      0x4  startup_stm32f411xe.o [1]
  .text              ro code  0x0802d248      0x4  startup_stm32f411xe.o [1]
  .text              ro code  0x0802d24c      0x4  startup_stm32f411xe.o [1]
  .text              ro code  0x0802d250      0x4  startup_stm32f411xe.o [1]
  .text              ro code  0x0802d254      0x4  startup_stm32f411xe.o [1]
  .text              ro code  0x0802d258      0x4  startup_stm32f411xe.o [1]
  .text              ro code  0x0802d25c      0x4  startup_stm32f411xe.o [1]
  .text              ro code  0x0802d260      0x4  startup_stm32f411xe.o [1]
  .text              ro code  0x0802d264      0x4  startup_stm32f411xe.o [1]
  .text              ro code  0x0802d268      0x4  startup_stm32f411xe.o [1]
  .text              ro code  0x0802d26c      0x4  startup_stm32f411xe.o [1]
  .text              ro code  0x0802d270      0x4  startup_stm32f411xe.o [1]
  .text              ro code  0x0802d274      0x4  startup_stm32f411xe.o [1]
  .text              ro code  0x0802d278      0x4  startup_stm32f411xe.o [1]
  .text              ro code  0x0802d27c      0x4  startup_stm32f411xe.o [1]
  .text              ro code  0x0802d280      0x4  startup_stm32f411xe.o [1]
  .text              ro code  0x0802d284      0x4  startup_stm32f411xe.o [1]
  .rodata            const    0x0802d288      0x0  bwt_init3c.o [5]
  Initializer bytes  ro data  0x0802d288    0xb38  <for P2 s0>
                            - 0x0802ddc0  0x25c28

"P2", part 1 of 3:                         0xa658
  P2 s0                       0x20000000   0xa658  <Init block>
    .data            inited   0x20000000   0x8018  heap_2.o [1]
    .data            inited   0x20008018    0xaa8  usb_host_device.o [1]
    .data            inited   0x20008ac0    0x7f4  si_edid_tx_component.o [1]
    .data            inited   0x200092b4    0x27c  si_cdc_component.o [1]
    .data            inited   0x20009530    0x248  si_cec_component.o [1]
    .data            inited   0x20009778    0x190  si_cra_cfg.o [1]
    .data            inited   0x20009908    0x150  si_drv_sii953x.o [1]
    .data            inited   0x20009a58     0xb0  si_rtpi_default_reg.o [1]
    .data            inited   0x20009b08     0x9c  si_drv_cpi.o [1]
    .data            inited   0x20009ba4     0x94  tasks.o [1]
    .data            inited   0x20009c38     0x88  UARTCmdDispatcher.o [1]
    .data            inited   0x20009cc0     0x84  si_drv_cbus_main.o [1]
    .data            inited   0x20009d44     0x80  si_cec_controller.o [1]
    .data            inited   0x20009dc4     0x78  cs49844.o [1]
    .data            inited   0x20009e3c     0x70  HT68F30.o [1]
    .data            inited   0x20009eac     0x70  HT68F30.o [1]
    .data            inited   0x20009f1c     0x6c  AudioDeviceManager.o [1]
    .data            inited   0x20009f88     0x64  si_ipv_data.o [1]
    .data            inited   0x20009fec     0x64  si_ipv_data.o [1]
    .data            inited   0x2000a050     0x58  usbd_cdc_core.o [1]
    .data            inited   0x2000a0a8     0x48  si_rtpi_component.o [1]
    .data            inited   0x2000a0f0     0x40  sk_app_ediddata.o [1]
    .data            inited   0x2000a130     0x40  sk_app_repeater.o [1]
    .data            inited   0x2000a170     0x34  IRCmdHandler.o [1]
    .data            inited   0x2000a1a4     0x34  si_cra_cfg.o [1]
    .data            inited   0x2000a1d8     0x34  si_drv_msw.o [1]
    .data            inited   0x2000a20c     0x2c  si_sac_main.o [1]
    .data            inited   0x2000a238     0x2c  usbd_cdc_core.o [1]
    .data            inited   0x2000a264     0x2c  usbd_core.o [1]
    .data            inited   0x2000a290     0x28  BTHandler.o [1]
    .data            inited   0x2000a2b8     0x28  si_ipv_data.o [1]
    .data            inited   0x2000a2e0     0x28  si_ipv_data.o [1]
    .data            inited   0x2000a308     0x28  sk953x_avr_repeater.o [1]
    .data            inited   0x2000a330     0x24  HMI_Service.o [1]
    .data            inited   0x2000a354     0x24  IRCmdHandler.o [1]
    .data            inited   0x2000a378     0x24  si_tx_component.o [1]
    .data            inited   0x2000a39c     0x1c  usbd_desc.o [1]
    .data            inited   0x2000a3b8     0x1c  usbd_usr.o [1]
    .data            inited   0x2000a3d4     0x18  BTHandler.o [1]
    .data            inited   0x2000a3ec     0x14  StorageDeviceDriver.o [1]
    .data            inited   0x2000a400     0x14  TAS5727.o [1]
    .data            inited   0x2000a414     0x14  si_cec_switch_api.o [1]
    .data            inited   0x2000a428     0x14  si_drv_arc.o [1]
    .data            inited   0x2000a43c     0x14  sk_app_cec.o [1]
    .data            inited   0x2000a450     0x14  system_stm32f4xx.o [1]
    .data            inited   0x2000a464     0x14  usbd_cdc_vcp.o [1]
    .data            inited   0x2000a478     0x14  usbd_desc.o [1]
    .data            inited   0x2000a48c     0x10  PowerHandler.o [1]
    .data            inited   0x2000a49c     0x10  StorageDeviceDriver.o [1]
    .data            inited   0x2000a4ac     0x10  si_cec_controller.o [1]
    .data            inited   0x2000a4bc     0x10  si_ipv_data.o [1]
    .data            inited   0x2000a4cc     0x10  sk_app_cec.o [1]
    .data            inited   0x2000a4dc     0x10  sk_app_tv.o [1]
    .data            inited   0x2000a4ec     0x10  stm32f4xx_rcc.o [1]
    .data            inited   0x2000a4fc      0xd  HT68F30.o [1]
    .data            inited   0x2000a50a      0x2  si_cra_cfg.o [1]
    .data            inited   0x2000a50c      0xc  IRCmdHandler.o [1]
    .data            inited   0x2000a518      0xc  RFHandler.o [1]
    .data            inited   0x2000a524      0xc  port.o [1]
    .data            inited   0x2000a530      0xc  si_audio_component.o [1]
    .data            inited   0x2000a53c      0xc  si_drv_msw.o [1]
    .data            inited   0x2000a548      0xc  sk_app_cec.o [1]
    .data            inited   0x2000a554      0xc  usbh_core.o [1]
    .data            inited   0x2000a560      0x8  I2C1LowLevel.o [1]
    .data            inited   0x2000a568      0x8  I2C1LowLevel.o [1]
    .data            inited   0x2000a570      0x8  I2C1LowLevel.o [1]
    .data            inited   0x2000a578      0x8  TAS5713.o [1]
    .data            inited   0x2000a580      0x8  TAS5727.o [1]
    .data            inited   0x2000a588      0x8  UIDeviceManager.o [1]
    .data            inited   0x2000a590      0x8  si_cdc_heac.o [1]
    .data            inited   0x2000a598      0x8  si_ipv_data.o [1]
    .data            inited   0x2000a5a0      0x8  si_repeater_component.o [1]
    .data            inited   0x2000a5a8      0x8  usbd_cdc_vcp.o [1]
    .data            inited   0x2000a5b0      0x4  AmplifierDeviceManager.o [1]
    .data            inited   0x2000a5b4      0x4  AudioSystemHandler.o [1]
    .data            inited   0x2000a5b8      0x4  ButtonCmdDispatcher.o [1]
    .data            inited   0x2000a5bc      0x4  CommandsManager.o [1]
    .data            inited   0x2000a5c0      0x4  GPIOLowLevel.o [1]
    .data            inited   0x2000a5c4      0x4  HMI_Service.o [1]
    .data            inited   0x2000a5c8      0x4  HT68F30.o [1]
    .data            inited   0x2000a5cc      0x4  IRCmdHandler.o [1]
    .data            inited   0x2000a5d0      0x4  IRCmdHandler.o [1]
    .data            inited   0x2000a5d4      0x4  IRLowLevel.o [1]
    .data            inited   0x2000a5d8      0x4  PowerHandler.o [1]
    .data            inited   0x2000a5dc      0x4  StorageDeviceManager.o [1]
    .data            inited   0x2000a5e0      0x4  TAS5713.o [1]
    .data            inited   0x2000a5e4      0x4  TAS5727.o [1]
    .data            inited   0x2000a5e8      0x4  UIDeviceManager.o [1]
    .data            inited   0x2000a5ec      0x4  UIDeviceManager.o [1]
    .data            inited   0x2000a5f0      0x4  buildtime.o [1]
    .data            inited   0x2000a5f4      0x4  cs49844.o [1]
    .data            inited   0x2000a5f8      0x4  cs5346.o [1]
    .data            inited   0x2000a5fc      0x4  cs8422.o [1]
    .data            inited   0x2000a600      0x4  si_cbus_component.o [1]
    .data            inited   0x2000a604      0x4  si_cdc_heac.o [1]
    .data            inited   0x2000a608      0x4  si_cec_controller.o [1]
    .data            inited   0x2000a60c      0x4  si_connection_monitor.o [1]
    .data            inited   0x2000a610      0x4  si_drv_ipv.o [1]
    .data            inited   0x2000a614      0x4  si_drv_nvram_sram.o [1]
    .data            inited   0x2000a618      0x4  si_drv_sii953x.o [1]
    .data            inited   0x2000a61c      0x4  si_drv_tpi_access.o [1]
    .data            inited   0x2000a620      0x4  si_drv_tpi_system.o [1]
    .data            inited   0x2000a624      0x4  si_edid_tx_scaler.o [1]
    .data            inited   0x2000a628      0x4  si_ipv_component.o [1]
    .data            inited   0x2000a62c      0x4  si_thx_component.o [1]
    .data            inited   0x2000a630      0x4  si_tx_audio.o [1]
    .data            inited   0x2000a634      0x4  si_tx_avi.o [1]
    .data            inited   0x2000a638      0x4  si_tx_hdcp.o [1]
    .data            inited   0x2000a63c      0x4  si_tx_info_frm.o [1]
    .data            inited   0x2000a640      0x4  sk953x_avr_repeater.o [1]
    .data            inited   0x2000a644      0x4  usb_host_device.o [1]
    .data            inited   0x2000a648      0x4  usbd_core.o [1]
    .data            inited   0x2000a64c      0x4  usbd_desc.o [1]
    .data            inited   0x2000a650      0x4  usbh_core.o [1]
    .data            inited   0x2000a654      0x2  sk_app_cbus.o [1]
    .data            inited   0x2000a656      0x1  cs49844.o [1]
    .data            inited   0x2000a657      0x1  sk_app_arc.o [1]
                            - 0x2000a658   0xa658

"P2", part 2 of 3:                         0x1050
  .bss               zero     0x2000a658    0x278  si_cbus_component.o [1]
  .bss               zero     0x2000a8d0    0x214  usbd_cdc_core.o [1]
  .bss               zero     0x2000aae4    0x100  si_drv_sii953x.o [1]
  .bss               zero     0x2000abe4    0x100  si_rtpi_component.o [1]
  .bss               zero     0x2000ace4    0x100  usbd_req.o [1]
  .bss               zero     0x2000ade4     0xcc  sk953x_avr_repeater.o [1]
  .bss               zero     0x2000aeb0     0xa4  si_ipv_component.o [1]
  .bss               zero     0x2000af54     0x9c  si_thx_component.o [1]
  .bss               zero     0x2000aff0     0x98  IRLowLevelDecoder.o [1]
  .bss               zero     0x2000b088     0x94  UART_LowLevel.o [1]
  .bss               zero     0x2000b11c     0x80  tasks.o [1]
  .bss               zero     0x2000b19c     0x70  si_cra.o [1]
  .bss               zero     0x2000b20c     0x6c  sk_app_cbus.o [1]
  .bss               zero     0x2000b278     0x40  queue.o [1]
  .bss               zero     0x2000b2b8     0x40  usbd_cdc_core.o [1]
  .bss               zero     0x2000b2f8     0x3c  ButtonCmdDispatcher.o [1]
  .bss               zero     0x2000b334     0x3c  I2C1LowLevel.o [1]
  .bss               zero     0x2000b370     0x38  si_repeater_component.o [1]
  .bss               zero     0x2000b3a8     0x34  timers.o [1]
  .bss               zero     0x2000b3dc     0x2c  cs49844.o [1]
  .bss               zero     0x2000b408     0x28  si_tx_hdcp.o [1]
  .bss               zero     0x2000b430     0x24  CS8422_ISR_Handler.o [1]
  .bss               zero     0x2000b454     0x20  AudioSystemHandler.o [1]
  .bss               zero     0x2000b474     0x20  HMI_Service.o [1]
  .bss               zero     0x2000b494     0x20  RFHandler.o [1]
  .bss               zero     0x2000b4b4     0x20  si_timer.o [1]
  .bss               zero     0x2000b4d4     0x20  si_tx_audio.o [1]
  .bss               zero     0x2000b4f4     0x1c  IRLowLevel.o [1]
  .bss               zero     0x2000b510     0x1c  si_drv_ipv.o [1]
  .bss               zero     0x2000b52c     0x1c  sk_app_cdc.o [1]
  .bss               zero     0x2000b548     0x14  IRCmdHandler.o [1]
  .bss               zero     0x2000b55c     0x14  si_platform.o [1]
  .bss               zero     0x2000b570     0x14  sk_app_audio_rx.o [1]
  .bss               zero     0x2000b584     0x10  AudioDeviceManager.o [1]
  .bss               zero     0x2000b594     0x10  si_drv_audio.o [1]
  .bss               zero     0x2000b5a4     0x10  si_drv_nvram_sram.o [1]
  .bss               zero     0x2000b5b4     0x10  si_drv_sii953x.o [1]
  .bss               zero     0x2000b5c4     0x10  sk_app_tx.o [1]
  .bss               zero     0x2000b5d4      0xc  Debug.o [1]
  .bss               zero     0x2000b5e0      0xc  VirtualTimer.o [1]
  .bss               zero     0x2000b5ec      0xc  usbd_req.o [1]
  .bss               zero     0x2000b5f8      0x9  si_drv_repeater.o [1]
  .bss               zero     0x2000b601      0x2  si_rtpi_component.o [1]
  .bss               zero     0x2000b603      0x1  HT68F30.o [1]
  .bss               zero     0x2000b604      0x9  si_repeater_sha.o [1]
  .bss               zero     0x2000b60e      0x2  si_drv_gpio.o [1]
  .bss               zero     0x2000b610      0x8  EepromDriver.o [1]
  .bss               zero     0x2000b618      0x8  HMI_Service.o [1]
  .bss               zero     0x2000b620      0x8  HT68F30.o [1]
  .bss               zero     0x2000b628      0x8  IRCmdHandler.o [1]
  .bss               zero     0x2000b630      0x8  IRCmdHandler.o [1]
  .bss               zero     0x2000b638      0x8  SPILowLevel.o [1]
  .bss               zero     0x2000b640      0x8  UIDeviceManager.o [1]
  .bss               zero     0x2000b648      0x8  si_cec_timer.o [1]
  .bss               zero     0x2000b650      0x8  si_connection_monitor.o [1]
  .bss               zero     0x2000b658      0x8  si_rtpi_component.o [1]
  .bss               zero     0x2000b660      0x8  si_tx_avi.o [1]
  .bss               zero     0x2000b668      0x6  si_drv_repeater_sha.o [1]
  .bss               zero     0x2000b66e      0x1  I2C1LowLevel.o [1]
  .bss               zero     0x2000b66f      0x1  I2C2LowLevel.o [1]
  .bss               zero     0x2000b670      0x4  App_main.o [1]
  .bss               zero     0x2000b674      0x4  Debug.o [1]
  .bss               zero     0x2000b678      0x4  si_drv_msw.o [1]
  .bss               zero     0x2000b67c      0x4  si_drv_tpi_access.o [1]
  .bss               zero     0x2000b680      0x4  si_drv_tpi_system.o [1]
  .bss               zero     0x2000b684      0x4  si_ipv_data.o [1]
  .bss               zero     0x2000b688      0x4  si_ipv_data.o [1]
  .bss               zero     0x2000b68c      0x4  si_rtpi_component.o [1]
  .bss               zero     0x2000b690      0x4  si_tx_info_frm.o [1]
  .bss               zero     0x2000b694      0x4  sk_app_switch.o [1]
  .bss               zero     0x2000b698      0x4  timers.o [1]
  .bss               zero     0x2000b69c      0x4  usbd_core.o [1]
  .bss               zero     0x2000b6a0      0x4  usbd_req.o [1]
  .bss               zero     0x2000b6a4      0x1  si_drv_tpi_ddc_access.o [1]
  .bss               zero     0x2000b6a5      0x1  si_drv_tpi_ddc_access.o [1]
  .bss               zero     0x2000b6a6      0x1  sk_app_arc.o [1]
  .bss               zero     0x2000b6a7      0x1  sk_app_cec.o [1]
                            - 0x2000b6a8   0x1050

"P2", part 3 of 3:                          0x900
  CSTACK                      0x2000b6a8    0x900  <Block>
    CSTACK           uninit   0x2000b6a8    0x900  <Block tail>
                            - 0x2000bfa8    0x900


*******************************************************************************
*** INIT TABLE
***

          Address     Size
          -------     ----
Zero (__iar_zero_init3)
    1 destination range, total size 0x1050:
          0x2000a658  0x1050

Copy/packbits (__iar_packbits_init3)
    1 source range, total size 0xb38 (6% of destination):
          0x0802d288   0xb38
    1 destination range, total size 0xa658:
          0x20000000  0xa658



*******************************************************************************
*** MODULE SUMMARY
***

    Module                        ro code  ro data  rw data
    ------                        -------  -------  -------
C:\Users\tony.tsou\Desktop\AmTRAN\Projects\15_K2\DevCode\2\Projects\S4051A\Output\S4051A\Application\Obj: [1]
    AmplifierDeviceManager.o           90       12        4
    App_main.o                        176                 4
    AudioDeviceManager.o            7 020      147      124
    AudioSystemHandler.o            1 428       29       36
    BTHandler.o                     2 084       25       64
    ButtonCmdDispatcher.o             340       12       64
    CS5346_i2c.o                      164
    CS8422_ISR_Handler.o              124                36
    CS8422_i2c.o                      216
    CardLowLevel.o                     30
    CardLowLevel_Platform.o           152
    CommandsManager.o                 972        4        4
    Debug.o                           340                16
    EepromDriver.o                  1 064                 8
    GPIOLowLevel.o                    500        9        4
    GPIOMiddleLevel.o                  12
    HMI_Service.o                   3 140       18       80
    HT68F30.o                       1 756       89      250
    HT68F30_i2c.o                      68
    I2C1LowLevel.o                  2 248        1       85
    I2C2LowLevel.o                  1 392                 1
    IRCmdHandler.o                  1 684       32      144
    IRLowLevel.o                      480       12       32
    IRLowLevelDecoder.o             1 704               152
    PowerHandler.o                    544       42       20
    RFHandler.o                       928        9       44
    SPILowLevel.o                     412                 8
    StorageDeviceDriver.o             876        2       36
    StorageDeviceManager.o            200       16        4
    SystemDefaultParams.o                        1
    TAS5713.o                         184        2       12
    TAS5713_i2c.o                     104
    TAS5727.o                         296        1       32
    TAS5727_i2c.o                     204
    UARTCmdDispatcher.o               196        9      136
    UART_LowLevel.o                   212               148
    UIDeviceManager.o               1 584       13       24
    VirtualTimer.o                    188                12
    buildtime.o                                  9        4
    cs49844.o                       7 976   10 240      169
    cs49844_spi.o                     712
    cs5346.o                          276       12        4
    cs8422.o                          580       49        4
    ext_flash_driver.o                160
    heap_2.o                          228    2 211   32 792
    list.o                            136
    misc.o                            140
    port.o                            384        1       12
    portasm.o                         176
    queue.o                         1 312                64
    si_audio_component.o              444                12
    si_cbus_component.o               640               636
    si_cbus_rcp_parse.o                 8
    si_cdc_component.o                 32       43      636
    si_cdc_heac.o                   3 552        1       12
    si_cdc_main.o                   5 208
    si_cec_component.o              1 368       40      584
    si_cec_controller.o             2 328        9      148
    si_cec_rx.o                       600
    si_cec_switch_api.o               804        2       20
    si_cec_timer.o                    236                 8
    si_cec_tx.o                       372
    si_connection_monitor.o           304        1       12
    si_cra.o                        1 076               112
    si_cra_cfg.o                                31      454
    si_drv_arc.o                      100        1       20
    si_drv_audio.o                  1 748                16
    si_drv_audio_mix.o                 88
    si_drv_cbus.o                      46
    si_drv_cbus_main.o                176        9      132
    si_drv_cpi.o                    1 332       11      156
    si_drv_edid_rx.o                  650
    si_drv_gpio.o                     816                 2
    si_drv_ipv.o                      942                32
    si_drv_msw.o                    1 272        4       68
    si_drv_msw_hpd.o                  686
    si_drv_msw_info.o                 836
    si_drv_nvram_sram.o               604                20
    si_drv_repeater.o                 968                 9
    si_drv_repeater_sha.o             464                 6
    si_drv_sii953x.o                1 468       22      612
    si_drv_tpg.o                      206
    si_drv_tpi_access.o               294        1        8
    si_drv_tpi_ddc_access.o           532                 2
    si_drv_tpi_system.o             2 146                 8
    si_edid_black_list.o              164
    si_edid_tx_analyzer.o           1 064
    si_edid_tx_component.o            972      137    2 036
    si_edid_tx_composer.o           4 060
    si_edid_tx_converter.o            796
    si_edid_tx_decode_h.o             766
    si_edid_tx_decode_l.o           3 884
    si_edid_tx_fmf.o                1 316
    si_edid_tx_scaler.o               904                 4
    si_edid_tx_tables.o                        192
    si_eeprom.o                        22
    si_gpio.o                         138
    si_i2c.o                           44
    si_ipv_component.o              2 034        1      168
    si_ipv_data.o                               51      312
    si_osal_timer.o                    74
    si_platform.o                     196                20
    si_repeater_component.o         1 656        1       64
    si_repeater_isr.o                 348
    si_repeater_sha.o                 172                 9
    si_rtpi_cbus.o                    212
    si_rtpi_cec.o                     398
    si_rtpi_component.o               888        5      342
    si_rtpi_default_reg.o                       12      176
    si_rtpi_register_functions.o      952
    si_sac_main.o                   2 448        3       44
    si_sac_msg.o                      310
    si_thx_component.o                408               160
    si_timer.o                        264                32
    si_tx_audio.o                   1 024                36
    si_tx_avi.o                       308                12
    si_tx_component.o               1 688        2       36
    si_tx_hdcp.o                    1 904        1       44
    si_tx_info_frm.o                  868                 8
    si_video_tables.o               3 424       68
    sk953x_avr_repeater.o           1 436       19      248
    sk_app_arc.o                      760        1        2
    sk_app_audio_rx.o                 400                20
    sk_app_cbus.o                     304               110
    sk_app_cbus_cec.o                 900
    sk_app_cdc.o                      196                28
    sk_app_cec.o                      628        3       49
    sk_app_demo.o                      32
    sk_app_device.o                   944
    sk_app_ediddata.o                          260       64
    sk_app_gpio.o                       4
    sk_app_ipv.o                      352
    sk_app_repeater.o                 940        5       64
    sk_app_setup.o                     32
    sk_app_support.o                  600
    sk_app_switch.o                 1 812                 4
    sk_app_thx.o                       92
    sk_app_tv.o                       152        1       16
    sk_app_tx.o                     2 664                16
    startup_stm32f411xe.o             616
    stm32f4xx_dma.o                   496
    stm32f4xx_exti.o                  136
    stm32f4xx_gpio.o                  164
    stm32f4xx_i2c.o                   500
    stm32f4xx_it.o                     94
    stm32f4xx_rcc.o                   252        1       16
    stm32f4xx_spi.o                    14
    stm32f4xx_syscfg.o                 40
    stm32f4xx_tim.o                   550
    system_stm32f4xx.o                272        2       20
    tasks.o                         2 112       10      276
    timers.o                          780                56
    usb_bsp.o                         202
    usb_core.o                      2 220
    usb_dcd.o                         470
    usb_dcd_int.o                   1 156
    usb_hcd_int.o                   3 112
    usb_host_device.o                 476      196    2 732
    usbd_cdc_core.o                   548        9      728
    usbd_cdc_vcp.o                    180        1       28
    usbd_core.o                       658        4       52
    usbd_desc.o                       280        3       52
    usbd_ioreq.o                      122
    usbd_req.o                        994               272
    usbd_usr.o                         14        2       28
    usbh_core.o                        18        1       16
    -------------------------------------------------------
    Total:                        139 968   14 173   46 758

command line: [2]
    -------------------------------------------------------
    Total:

dl7M_tln.a: [3]
    exit.o                              4
    -------------------------------------------------------
    Total:                              4

m7M_tlv.a: [4]
    fpinit_M.o                         26
    -------------------------------------------------------
    Total:                             26

rt7M_tl.a: [5]
    ABImemclr.o                         6
    ABImemclr4.o                        6
    ABImemcpy.o                       118
    ABImemset.o                       102
    ABImemset48.o                      58
    XXexit.o                           12
    bwt_init3c.o
    cexit.o                            10
    cmain.o                            22
    cstartup_M.o                       12
    data_init3.o                       44
    memcmp.o                           98
    packbits_init3.o                  160
    strcmp.o                           66
    strlen.o                           54
    zero_init3.o                       34
    -------------------------------------------------------
    Total:                            802

    Gaps                               47        8        2
    Linker created                              44    2 304
-----------------------------------------------------------
    Grand Total:                  140 847   14 225   49 064


*******************************************************************************
*** ENTRY LIST
***

Entry                      Address    Size  Type      Object
-----                      -------    ----  ----      ------
?main                   0x0802d0bd          Code  Gb  cmain.o [5]
AC3_INITIAL_CFG         0x08008494  0x1480  Data  Lc  cs49844.o [1]
AC3_ULD_LOCATION        0x20009df8    0x20  Data  Gb  cs49844.o [1]
ADC_IRQHandler          0x0802d205          Code  Wk  startup_stm32f411xe.o [1]
ADC_ObjCtrl             0x0802d188     0xc  Data  Gb  cs5346.o [1]
ADM_Call_Back_sema_mutex_give
                        0x08010fe3    0x18  Code  Lc  AudioDeviceManager.o [1]
ADM_Call_Back_sema_mutex_take
                        0x08010fc1    0x22  Code  Lc  AudioDeviceManager.o [1]
ADM_I2C2_sema_mutex_give
                        0x08010fa9    0x18  Code  Lc  AudioDeviceManager.o [1]
ADM_I2C2_sema_mutex_take
                        0x08010f87    0x22  Code  Lc  AudioDeviceManager.o [1]
AHBPrescTable           0x2000a450    0x10  Data  Gb  system_stm32f4xx.o [1]
AMP_DEV_ObjCtrl         0x0802d158     0xc  Data  Gb  AmplifierDeviceManager.o [1]
APBAHBPrescTable        0x2000a4ec    0x10  Data  Lc  stm32f4xx_rcc.o [1]
APP_Rx_Buffer           0x2000a8e4   0x200  Data  Gb  usbd_cdc_core.o [1]
APP_Rx_length           0x2000a8dc     0x4  Data  Gb  usbd_cdc_core.o [1]
APP_Rx_ptr_in           0x2000a8d4     0x4  Data  Gb  usbd_cdc_core.o [1]
APP_Rx_ptr_out          0x2000a8d8     0x4  Data  Gb  usbd_cdc_core.o [1]
AcpTypeGet              0x0801a8bd    0x38  Code  Lc  si_drv_audio.o [1]
AddBytesToKsvHash       0x0801d9bf    0xc4  Code  Lc  si_tx_hdcp.o [1]
AddVideoMode            0x08018243    0x1c  Code  Lc  si_edid_tx_decode_l.o [1]
AmTARCMessageSend       0x080204d5    0x1e  Code  Lc  sk_app_arc.o [1]
AmTArcAppTaskAssign     0x08020859    0x7a  Code  Gb  sk953x_avr_repeater.o [1]
AmTArcTaskAssign        0x080204cb     0xa  Code  Gb  sk_app_arc.o [1]
AmTAudiogetMultiChannel
                        0x080225cb     0xc  Code  Gb  sk_app_audio_rx.o [1]
AmTCecArcTask           0x08020443    0x88  Code  Gb  sk_app_arc.o [1]
AmTCecEventPassToHMI    0x0801ce73    0x1a  Code  Gb  si_cec_component.o [1]
AmTCecEventVolumeCtrl_HMI
                        0x0801ce8d    0x28  Code  Gb  si_cec_component.o [1]
AmTCecGetSyspramsFromHMI
                        0x0801ceb5     0x8  Code  Gb  si_cec_component.o [1]
AmTCecGetSystemPowerStatus
                        0x0801cebd     0x8  Code  Gb  si_cec_component.o [1]
AmTCecSacSyncVolumeStatus
                        0x0801fc15    0x34  Code  Gb  si_sac_main.o [1]
AmTCecSacTask           0x0801fc49    0x18  Code  Gb  si_sac_main.o [1]
AmTCecTask              0x0801b70f    0x42  Code  Gb  sk_app_cec.o [1]
AmTCecTaskAssign        0x0801b751    0x1c  Code  Gb  sk_app_cec.o [1]
AmTSacAppTaskAssign     0x080208d3    0x2c  Code  Gb  sk953x_avr_repeater.o [1]
AmTSacTaskAssign        0x0801fc61     0xc  Code  Gb  si_sac_main.o [1]
AmTUpdateARCTxLA        0x080204f3    0x22  Code  Lc  sk_app_arc.o [1]
AmpDeviceManager_FrontMuteCtrl
                        0x0802cecf    0x20  Code  Lc  AmplifierDeviceManager.o [1]
AmpDeviceManager_Initialize
                        0x0802ceb5    0x1a  Code  Lc  AmplifierDeviceManager.o [1]
AmpDeviceManager_RearMuteControl
                        0x0802cef9    0x16  Code  Lc  AmplifierDeviceManager.o [1]
App_I2C1_sema_mutex_give
                        0x08014b05    0x16  Code  Gb  I2C1LowLevel.o [1]
App_I2C1_sema_mutex_take
                        0x08014ae3    0x16  Code  Gb  I2C1LowLevel.o [1]
ArcSendResponse         0x08020265    0x2a  Code  Lc  sk_app_arc.o [1]
ArcTaskCounter          0x2000a657     0x1  Data  Lc  sk_app_arc.o [1]
AudioDevBackCtlParams   0x20009f38    0x10  Data  Lc  AudioDeviceManager.o [1]
AudioDevExceptParams    0x2000b584    0x10  Data  Lc  AudioDeviceManager.o [1]
AudioDeviceManager      0x0802cd4c    0x60  Data  Gb  AudioDeviceManager.o [1]
AudioDeviceManager_CreateTask
                        0x0800fc15    0xa8  Code  Lc  AudioDeviceManager.o [1]
AudioDeviceManager_DeInitialize
                        0x0800ffab    0x54  Code  Lc  AudioDeviceManager.o [1]
AudioDeviceManager_DeviceConfig
                        0x0801008f    0x38  Code  Lc  AudioDeviceManager.o [1]
AudioDeviceManager_DigitalDetectorTask
                        0x080106b9   0x100  Code  Gb  AudioDeviceManager.o [1]
AudioDeviceManager_DigitalDetector_TaskCtrl
                        0x0801068b    0x2e  Code  Lc  AudioDeviceManager.o [1]
AudioDeviceManager_Initialize
                        0x0801004d    0x42  Code  Lc  AudioDeviceManager.o [1]
AudioDeviceManager_InitializeParams
                        0x0801000b    0x42  Code  Lc  AudioDeviceManager.o [1]
AudioDeviceManager_SignalDetectorTask
                        0x08010f0d    0x7a  Code  Gb  AudioDeviceManager.o [1]
AudioDeviceManager_SignalDetector_TaskCtrl
                        0x08010ed1    0x2c  Code  Lc  AudioDeviceManager.o [1]
AudioDeviceManager_getAudParams
                        0x0800fcbd     0xc  Code  Lc  AudioDeviceManager.o [1]
AudioDeviceManager_getSignalAvailable
                        0x08010ec9     0x8  Code  Lc  AudioDeviceManager.o [1]
AudioDeviceManager_lowlevel_AudParmsConfig
                        0x0801018f   0x13c  Code  Lc  AudioDeviceManager.o [1]
AudioDeviceManager_lowlevel_AudioRouter
                        0x0800ff5d    0x4c  Code  Gb  AudioDeviceManager.o [1]
AudioDeviceManager_lowlevel_rstSRC
                        0x080102e1    0x60  Code  Lc  AudioDeviceManager.o [1]
AudioDeviceManager_lowlevel_setMute
                        0x080100ed    0x52  Code  Lc  AudioDeviceManager.o [1]
AudioDeviceManager_setInputPath
                        0x0800fcc9    0x38  Code  Lc  AudioDeviceManager.o [1]
AudioInstRec            0x2000b4d4    0x20  Data  Gb  si_tx_audio.o [1]
AudioLowLeveDriver      0x0802cdac    0x2c  Data  Gb  AudioDeviceManager.o [1]
AudioStatusChannelUpdate
                        0x0801e791    0xb2  Code  Lc  si_tx_audio.o [1]
AudioSysParams          0x2000b454    0x20  Data  Lc  AudioSystemHandler.o [1]
AudioSystemHandler      0x0802d06c    0x1c  Data  Gb  AudioSystemHandler.o [1]
AudioSystemHandler_AudioParmsAdapter
                        0x08029473    0x62  Code  Lc  AudioSystemHandler.o [1]
AudioSystemHandler_AudioVolParmsAdapter
                        0x080297cd    0x28  Code  Lc  AudioSystemHandler.o [1]
AudioSystemHandler_CreateTask
                        0x0802973b    0x7c  Code  Lc  AudioSystemHandler.o [1]
AudioSystemHandler_IgnoreSameSetting
                        0x0802943d    0x36  Code  Lc  AudioSystemHandler.o [1]
AudioSystemHandler_InstrSender
                        0x080293af    0x36  Code  Lc  AudioSystemHandler.o [1]
AudioSystemHandler_RstCtrl
                        0x080293e5    0x58  Code  Lc  AudioSystemHandler.o [1]
AudioSystemHandler_ServiceHandle
                        0x080296cf    0x6c  Code  Gb  AudioSystemHandler.o [1]
AudioSystemHandler_getHDMIPowerStatus
                        0x080293a5     0xa  Code  Lc  AudioSystemHandler.o [1]
AudioSystemHandler_getRampStatus
                        0x08029387     0xa  Code  Lc  AudioSystemHandler.o [1]
AudioSystemHandler_getRampVol
                        0x08029391     0xa  Code  Lc  AudioSystemHandler.o [1]
AudioSystemHandler_getSignalAvailable
                        0x0802937d     0xa  Code  Lc  AudioSystemHandler.o [1]
AudioSystemHandler_getTargetVol
                        0x0802939b     0xa  Code  Lc  AudioSystemHandler.o [1]
AudioSystemHandler_handleCommand
                        0x080294d5   0x1f4  Code  Lc  AudioSystemHandler.o [1]
AudioSystem_Cover_PCM96Khz
                        0x08010e77    0x52  Code  Gb  AudioDeviceManager.o [1]
AudioSystem_isPCM_96Khz
                        0x08010e2d    0x4a  Code  Gb  AudioDeviceManager.o [1]
AuidoDeviceManager_Factory_AQBypass
                        0x0800ff23    0x3a  Code  Lc  AudioDeviceManager.o [1]
AuidoDeviceManager_Route_Ctrl
                        0x0800ffa9     0x2  Code  Lc  AudioDeviceManager.o [1]
AuidoDeviceManager_VolController_CreateTask
                        0x08010513    0x3a  Code  Lc  AudioDeviceManager.o [1]
AuidoDeviceManager_VolController_RampStauts
                        0x08010669    0x12  Code  Lc  AudioDeviceManager.o [1]
AuidoDeviceManager_VolController_TargetVol
                        0x08010683     0x8  Code  Lc  AudioDeviceManager.o [1]
AuidoDeviceManager_VolController_TaskCtrl
                        0x08010633    0x36  Code  Lc  AudioDeviceManager.o [1]
AuidoDeviceManager_VolController_VolStauts
                        0x0801067b     0x8  Code  Lc  AudioDeviceManager.o [1]
AuidoDeviceManager_VolController_setEvent
                        0x08010625     0xe  Code  Lc  AudioDeviceManager.o [1]
AuidoDeviceManager_VolController_task
                        0x08010341   0x1c0  Code  Gb  AudioDeviceManager.o [1]
AuidoDeviceManager_lowlevel_BackCtl_task
                        0x080110e1   0x106  Code  Gb  AudioDeviceManager.o [1]
AuidoDeviceManager_lowlevel_Exception_CreateTask
                        0x080111ef    0x5c  Code  Lc  AudioDeviceManager.o [1]
AuidoDeviceManager_lowlevel_Exception_InstrSender
                        0x08011277    0x1a  Code  Lc  AudioDeviceManager.o [1]
AuidoDeviceManager_lowlevel_Exception_Task
                        0x080112a1   0x126  Code  Gb  AudioDeviceManager.o [1]
AuidoDeviceManager_lowlevel_Exception_TaskCtrl
                        0x0801124b    0x2c  Code  Lc  AudioDeviceManager.o [1]
AuidoDeviceManager_lowlevel_Function_Back_CreateTask
                        0x08011005    0x56  Code  Gb  AudioDeviceManager.o [1]
AuidoDeviceManager_lowlevel_Function_Back_InstrSender
                        0x080110a9    0x36  Code  Gb  AudioDeviceManager.o [1]
AuidoDeviceManager_lowlevel_Function_Back_TaskCtrl
                        0x08011071    0x38  Code  Gb  AudioDeviceManager.o [1]
AuidoDeviceManager_lowlevel_VolController_setEvent
                        0x08010559    0xb8  Code  Lc  AudioDeviceManager.o [1]
AuidoDeviceManager_lowlevel_getAudioStreamType
                        0x08010185     0xa  Code  Lc  AudioDeviceManager.o [1]
AuidoDeviceManager_lowlevel_setLsRs
                        0x08010151    0x18  Code  Lc  AudioDeviceManager.o [1]
AuidoDeviceManager_lowlevel_setMasterGain
                        0x0801013f    0x12  Code  Lc  AudioDeviceManager.o [1]
AuidoDeviceManager_setAVDelay
                        0x0800ff07    0x1c  Code  Lc  AudioDeviceManager.o [1]
AuidoDeviceManager_setBalance
                        0x0800fe2d    0x58  Code  Lc  AudioDeviceManager.o [1]
AuidoDeviceManager_setBass
                        0x0800fd01    0x22  Code  Lc  AudioDeviceManager.o [1]
AuidoDeviceManager_setCenter
                        0x0800fdd5    0x24  Code  Lc  AudioDeviceManager.o [1]
AuidoDeviceManager_setLsRs
                        0x0800fe01    0x24  Code  Lc  AudioDeviceManager.o [1]
AuidoDeviceManager_setNightMode
                        0x0800fedd    0x2a  Code  Lc  AudioDeviceManager.o [1]
AuidoDeviceManager_setSRSTruVolTSHD
                        0x0800fe91    0x4c  Code  Lc  AudioDeviceManager.o [1]
AuidoDeviceManager_setSub
                        0x0800fd4d    0x7a  Code  Lc  AudioDeviceManager.o [1]
AuidoDeviceManager_setTreble
                        0x0800fd29    0x24  Code  Lc  AudioDeviceManager.o [1]
AvMuteEnable            0x0801da83    0x1e  Code  Lc  si_tx_hdcp.o [1]
AviInstRec              0x2000b660     0x8  Data  Gb  si_tx_avi.o [1]
BALANCE_AC3_GAIN        0x08010c8c    0x34  Data  Lc  AudioDeviceManager.o [1]
BALANCE_DTS_GAIN        0x08010c24    0x34  Data  Lc  AudioDeviceManager.o [1]
BALANCE_PCM_GAIN        0x08010c58    0x34  Data  Lc  AudioDeviceManager.o [1]
BTHandle                0x0802d0f0    0x14  Data  Gb  BTHandler.o [1]
BTHandlerState          0x2000a3d4     0x1  Data  Gb  BTHandler.o [1]
BTHandler_CreateTask    0x08027109    0x9a  Code  Lc  BTHandler.o [1]
BTHandler_GetBTStatus   0x080272c3    0x6c  Code  Lc  BTHandler.o [1]
BTHandler_InstrSender   0x080271a3     0x4  Code  Lc  BTHandler.o [1]
BTHandler_PowerCtl      0x08027213    0x2a  Code  Lc  BTHandler.o [1]
BTHandler_Service       0x080271a9    0x6a  Code  Lc  BTHandler.o [1]
BTHandler_ServiceHandle
                        0x08027537   0x146  Code  Lc  BTHandler.o [1]
BTHandler_TaskCtrl      0x08027685    0x44  Code  Lc  BTHandler.o [1]
BTHandler_ToogleBTPower
                        0x0802723d    0x72  Code  Lc  BTHandler.o [1]
BTHandler_handleCommand
                        0x08027361   0x1d0  Code  Lc  BTHandler.o [1]
BTHanlder_reportBTStatus
                        0x080272bb     0x8  Code  Lc  BTHandler.o [1]
BTN_ConfObj             0x0802d164     0xc  Data  Gb  ButtonCmdDispatcher.o [1]
BTStatus                0x2000a3d5     0x1  Data  Gb  BTHandler.o [1]
BT_GPIO_BT_PAIRING_CTTL
                        0x0802732f    0x2c  Code  Lc  BTHandler.o [1]
BT_GPIO_sema            0x2000a3d8     0xc  Data  Gb  BTHandler.o [1]
BT_GPIO_sema_mutex_give
                        0x080270eb    0x1e  Code  Lc  BTHandler.o [1]
BT_GPIO_sema_mutex_take
                        0x080270cd    0x1e  Code  Lc  BTHandler.o [1]
BT_time_status          0x2000a3d7     0x1  Data  Gb  BTHandler.o [1]
Bass_table              0x08010a50    0x34  Data  Lc  AudioDeviceManager.o [1]
BusFault_Handler        0x0802ce5b     0x2  Code  Gb  stm32f4xx_it.o [1]
ButtonCmdDispatcher_registerCommand
                        0x0802be29    0x42  Code  Lc  ButtonCmdDispatcher.o [1]
ButtonCmdDispatcher_registerDemo_1n3_Command
                        0x0802be99    0x30  Code  Lc  ButtonCmdDispatcher.o [1]
ButtonCmdDispatcher_registerDemo_2_Command
                        0x0802becf    0x24  Code  Lc  ButtonCmdDispatcher.o [1]
ButtonCmdDispatcher_registerUserCommand
                        0x0802be6b    0x2e  Code  Lc  ButtonCmdDispatcher.o [1]
CBusSendMscCommand      0x080227e9    0x28  Code  Gb  si_cbus_component.o [1]
CBusSendMscMsgCmd       0x0802276b    0x1a  Code  Gb  si_cbus_component.o [1]
CBusSetInt              0x08022811    0x28  Code  Lc  si_cbus_component.o [1]
CBusWriteCommand        0x08022785    0x5a  Code  Lc  si_cbus_component.o [1]
CBusWriteStatus         0x08022839    0x12  Code  Lc  si_cbus_component.o [1]
CEC_ARC_TxLA            0x2000b6a6     0x1  Data  Lc  sk_app_arc.o [1]
CENTER_GAIN             0x08010bf0    0x34  Data  Lc  AudioDeviceManager.o [1]
CHAR_MAP                0x0800dbc0    0x10  Data  Lc  Debug.o [1]
CS49844SPI_CommandWrite
                        0x0800cb13    0x2c  Code  Gb  cs49844_spi.o [1]
CS49844SPI_MsgNote1     0x0800ca9d    0x5a  Code  Gb  cs49844_spi.o [1]
CS49844SPI_ReadSolicited
                        0x0800cb3f    0x42  Code  Gb  cs49844_spi.o [1]
CS49844SPI_read_buffer  0x0800ca0f    0x82  Code  Gb  cs49844_spi.o [1]
CS49844SPI_write_ULD_buffer
                        0x0800c953    0xb6  Code  Gb  cs49844_spi.o [1]
CS49844SPI_write_buffer
                        0x0800c8b9    0x9a  Code  Gb  cs49844_spi.o [1]
CS5346_Initialize       0x0802c367    0x36  Code  Lc  cs5346.o [1]
CS5346_Mute             0x0802c297    0x14  Code  Gb  cs5346.o [1]
CS5346_PowerUpDown      0x0802c289     0xe  Code  Gb  cs5346.o [1]
CS5346_ReadI2C_Byte     0x0802c39d    0x34  Code  Gb  CS5346_i2c.o [1]
CS5346_Select_Divider   0x0802c32b    0x3c  Code  Gb  cs5346.o [1]
CS5346_Select_Format    0x0802c2ab    0x14  Code  Gb  cs5346.o [1]
CS5346_Select_MASTER_SLAVE
                        0x0802c30d    0x16  Code  Gb  cs5346.o [1]
CS5346_WriteI2C_Byte    0x0802c3d1    0x32  Code  Gb  CS5346_i2c.o [1]
CS5346_setInputPath     0x0802c2e1    0x2c  Code  Lc  cs5346.o [1]
CS5346_set_AB_channels_gain
                        0x0802c2c9    0x18  Code  Lc  cs5346.o [1]
CS8422_ClockControl_RMCK
                        0x0802b28d    0x1e  Code  Lc  cs8422.o [1]
CS8422_ForcesClockControl
                        0x0802b229    0x20  Code  Lc  cs8422.o [1]
CS8422_Format_IsPCM     0x0802b2bd    0x12  Code  Lc  cs8422.o [1]
CS8422_ISR_Control      0x0802ce23    0x28  Code  Gb  CS8422_ISR_Handler.o [1]
CS8422_ISR_SuspendedCtrl
                        0x0802cdd9    0x4a  Code  Gb  CS8422_ISR_Handler.o [1]
CS8422_IsPLL_Lock       0x0802b2cf    0x1a  Code  Lc  cs8422.o [1]
CS8422_ReadI2C_Byte     0x0802b449    0x46  Code  Gb  CS8422_i2c.o [1]
CS8422_SRC_Initialize   0x0802b40d     0x2  Code  Lc  cs8422.o [1]
CS8422_SRC_setPath_Rx   0x0802b2e9    0x78  Code  Lc  cs8422.o [1]
CS8422_SRC_setPath_SerialAudioInput
                        0x0802b361    0x16  Code  Lc  cs8422.o [1]
CS8422_SerialAudioInput_SAI_MCLK_Control
                        0x0802b205    0x24  Code  Lc  cs8422.o [1]
CS8422_SerialAudioOutput
                        0x0802b24f    0x3e  Code  Lc  cs8422.o [1]
CS8422_WriteI2C_Byte    0x0802b4a7    0x3a  Code  Gb  CS8422_i2c.o [1]
CS8422_getForcesClockControl
                        0x0802b421     0xc  Code  Lc  cs8422.o [1]
CS8422_getISCLK_ACTIVE  0x0802b2ab    0x12  Code  Lc  cs8422.o [1]
CS8422_init             0x0802b377    0x96  Code  Gb  cs8422.o [1]
CS8422_is_96Khz192Khz_AES3
                        0x0802b437    0x12  Code  Lc  cs8422.o [1]
CS8422_read_SDOUT1_DataSource
                        0x0802b42d     0xa  Code  Lc  cs8422.o [1]
CSTACK$$Base            0x2000b6a8           --   Gb  - Linker created -
CSTACK$$Limit           0x2000bfa8           --   Gb  - Linker created -
Calculate3dLength       0x08015659    0x58  Code  Lc  si_edid_tx_composer.o [1]
CalculateChecksum       0x0801e26b    0x24  Code  Lc  si_tx_info_frm.o [1]
CancelHdcpAuthentication
                        0x0801daa1    0x14  Code  Lc  si_tx_hdcp.o [1]
CardLowLevelPlatform_initializeCard
                        0x0802cbf5    0x98  Code  Gb  CardLowLevel_Platform.o [1]
CardLowLevel_initializeCard
                        0x0802cc8d    0x1e  Code  Gb  CardLowLevel.o [1]
CbusCecToCbusRap        0x0801ff19    0x7c  Code  Lc  sk_app_cbus_cec.o [1]
CdcAdjacentPhysAddrGet  0x080130dd    0x44  Code  Gb  si_cdc_heac.o [1]
CdcAliveDeviceListAdd   0x08012d1d    0x48  Code  Gb  si_cdc_heac.o [1]
CdcAliveDeviceListRemove
                        0x08012dbb    0x50  Code  Gb  si_cdc_heac.o [1]
CdcAliveDeviceListTimeReset
                        0x08012f6f    0x34  Code  Gb  si_cdc_heac.o [1]
CdcAliveDeviceListTimeUpdate
                        0x08012fa3    0x34  Code  Gb  si_cdc_heac.o [1]
CdcAliveTimerSet        0x08011843    0x3c  Code  Lc  si_cdc_main.o [1]
CdcCapablePortGet       0x080131cb    0xc2  Code  Gb  si_cdc_heac.o [1]
CdcCpiWrite             0x0801368f    0x24  Code  Lc  si_cdc_heac.o [1]
CdcDiscoveryDataArrange
                        0x08013499   0x1da  Code  Gb  si_cdc_heac.o [1]
CdcEhdmiHwEnable        0x08013673     0x4  Code  Gb  si_cdc_heac.o [1]
CdcEhdmiIoPortHwEnable  0x08013677    0x18  Code  Gb  si_cdc_heac.o [1]
CdcHecAddNewDeviceToHostList
                        0x080118af    0xac  Code  Lc  si_cdc_main.o [1]
CdcHecDeactivationRequestSend
                        0x08013903    0x48  Code  Gb  si_cdc_heac.o [1]
CdcHecDescriptorAdd     0x08012c31    0x52  Code  Gb  si_cdc_heac.o [1]
CdcHecDescriptorRemove  0x08012c83    0x56  Code  Gb  si_cdc_heac.o [1]
CdcHecDisableCheck      0x0801187f    0x30  Code  Lc  si_cdc_main.o [1]
CdcHecDiscoverSend      0x080136b3     0xc  Code  Gb  si_cdc_heac.o [1]
CdcHecIndexGet          0x08012cd9    0x44  Code  Gb  si_cdc_heac.o [1]
CdcHecInquireStateOfAdjacentSend
                        0x080136fd    0x44  Code  Gb  si_cdc_heac.o [1]
CdcHecInquireStateSend  0x080136bf    0x36  Code  Gb  si_cdc_heac.o [1]
CdcHecInstanceRecordReset
                        0x08012c0f    0x22  Code  Gb  si_cdc_heac.o [1]
CdcHecLengthGet         0x080130a1    0x24  Code  Gb  si_cdc_heac.o [1]
CdcHecNextDeviceGet     0x0801302f    0x72  Code  Gb  si_cdc_heac.o [1]
CdcHecNotifyAliveSend   0x0801394b     0xc  Code  Gb  si_cdc_heac.o [1]
CdcHecReportStateSend   0x08013741    0xdc  Code  Gb  si_cdc_heac.o [1]
CdcHecSetStateAdjacentSend
                        0x080138dd    0x26  Code  Gb  si_cdc_heac.o [1]
CdcHecSetStateSend      0x08013825    0xb8  Code  Gb  si_cdc_heac.o [1]
CdcHpdReportStateSend   0x08013981    0x30  Code  Gb  si_cdc_heac.o [1]
CdcHpdSetStateSend      0x08013957    0x2a  Code  Gb  si_cdc_heac.o [1]
CdcIoPortsActivate      0x0801328d    0x5a  Code  Gb  si_cdc_heac.o [1]
CdcIoPortsStatusUpdate  0x080132ef    0xee  Code  Gb  si_cdc_heac.o [1]
CdcIsCapableToAdjacent  0x08013121    0x5a  Code  Gb  si_cdc_heac.o [1]
CdcIsDeviceBelongsToHec
                        0x08012fd7    0x58  Code  Gb  si_cdc_heac.o [1]
CdcIsHecEnabledInDev    0x080133dd    0xb6  Code  Gb  si_cdc_heac.o [1]
CdcIsLinkedDirectly     0x080130c5    0x18  Code  Gb  si_cdc_heac.o [1]
CdcIsLinkedDirectlyInPortGet
                        0x0801317b    0x50  Code  Lc  si_cdc_heac.o [1]
CdcIsTimeCounterExpired
                        0x08012f1f     0xc  Code  Gb  si_cdc_heac.o [1]
CdcLostDeviceDisconnect
                        0x08012b73    0x22  Code  Lc  si_cdc_main.o [1]
CdcPhysAddrFromAliveListDelete
                        0x08012e0b    0x78  Code  Lc  si_cdc_heac.o [1]
CdcPhysAddrToAliveListInsert
                        0x08012d65    0x56  Code  Lc  si_cdc_heac.o [1]
CdcTaskBase             0x080122a5   0x688  Code  Lc  si_cdc_main.o [1]
CdcTaskConnect          0x080119f7   0x3aa  Code  Lc  si_cdc_main.o [1]
CdcTaskConnectAdjacent  0x08011e4f    0xea  Code  Lc  si_cdc_main.o [1]
CdcTaskDisconnectAll    0x08011f5f    0xea  Code  Lc  si_cdc_main.o [1]
CdcTaskDisconnectLost   0x08012073   0x11a  Code  Lc  si_cdc_main.o [1]
CdcTaskDiscover         0x0801195b    0x9c  Code  Lc  si_cdc_main.o [1]
CdcTaskHpdCapabilityVerification
                        0x08012227    0x78  Code  Gb  si_cdc_main.o [1]
CdcTaskHpdSignal        0x080121a3    0x74  Code  Gb  si_cdc_main.o [1]
CdcTimeCounterCompare   0x08012f35    0x3a  Code  Gb  si_cdc_heac.o [1]
CdcTimeCounterReset     0x08012f2b     0xa  Code  Gb  si_cdc_heac.o [1]
CdcTimeCounterSet       0x08012e91    0x2a  Code  Gb  si_cdc_heac.o [1]
CdcTimeCounterUpdate    0x08012ebb    0x64  Code  Gb  si_cdc_heac.o [1]
CecActiveSourceRequestSend
                        0x0801f2f9    0x14  Code  Lc  si_sac_main.o [1]
CecAddTask              0x0801c927    0x56  Code  Gb  si_cec_controller.o [1]
CecIfChild              0x0801fe7f    0x2e  Code  Lc  si_cec_rx.o [1]
CecIsLinkedDirectlyInPortGet
                        0x0801cd41    0x50  Code  Lc  si_cec_component.o [1]
CecIsRoomInTaskQueue    0x0801c90d    0x1a  Code  Gb  si_cec_controller.o [1]
CecIsTimeCounterExpired
                        0x080222c9    0x16  Code  Gb  si_cec_timer.o [1]
CecMsgHandlerFirst      0x0801c605    0xea  Code  Lc  si_cec_controller.o [1]
CecMsgHandlerLast       0x0801c6ef    0x96  Code  Lc  si_cec_controller.o [1]
CecPhysicalAddressReportSend
                        0x0801efd5    0x2c  Code  Lc  si_cec_switch_api.o [1]
CecRxMsgHandler         0x0801fd21   0x112  Code  Gb  si_cec_rx.o [1]
CecSacTaskBase          0x0801f61d   0x2d6  Code  Lc  si_sac_main.o [1]
CecSacTaskInitiate      0x0801f4e5    0xba  Code  Lc  si_sac_main.o [1]
CecSendSetOsdName       0x0801c165    0x34  Code  Lc  si_cec_controller.o [1]
CecSendSetStreamPath    0x0801c137    0x2e  Code  Gb  si_cec_controller.o [1]
CecSendUserControlPressed
                        0x0801c199    0x26  Code  Gb  si_cec_controller.o [1]
CecSendUserControlReleased
                        0x0801c1bf     0x6  Code  Gb  si_cec_controller.o [1]
CecSwitchInputPortGet   0x0801f03b    0x22  Code  Lc  si_cec_switch_api.o [1]
CecSwitchTaskBase       0x0801f05d   0x11c  Code  Lc  si_cec_switch_api.o [1]
CecSysTimeMsSet         0x0802222d     0xe  Code  Gb  si_cec_timer.o [1]
CecTaskEnumerateDevices
                        0x0801c237   0x144  Code  Lc  si_cec_controller.o [1]
CecTaskOneTouchPlay     0x0801b7c3    0xb6  Code  Gb  si_cec_tx.o [1]
CecTaskSendMsg          0x0801c385    0xa4  Code  Lc  si_cec_controller.o [1]
CecTaskServer           0x0801c54d    0xb8  Code  Gb  si_cec_controller.o [1]
CecTimeCounterCompare   0x080222e5    0x2e  Code  Gb  si_cec_timer.o [1]
CecTimeCounterReset     0x080222df     0x6  Code  Gb  si_cec_timer.o [1]
CecTimeCounterSet       0x0802223b    0x1e  Code  Gb  si_cec_timer.o [1]
CecTimeCounterUpdate    0x08022259    0x70  Code  Gb  si_cec_timer.o [1]
CecTxMsgHandler         0x0801b89b    0x62  Code  Gb  si_cec_tx.o [1]
CecVendorID             0x2000a608     0x4  Data  Gb  si_cec_controller.o [1]
CheckAndCorrectRangeLimits
                        0x080180a1   0x1a2  Code  Lc  si_edid_tx_decode_l.o [1]
CmdBuff                 0x2000a05c     0x8  Data  Gb  usbd_cdc_core.o [1]
ComposeDtdOptEdid       0x08015edf    0xa4  Code  Lc  si_edid_tx_composer.o [1]
ComposeEdidBlock0       0x08015741   0x2d4  Code  Lc  si_edid_tx_composer.o [1]
ComposeHdmiEdidBlock    0x08015a29   0x47e  Code  Lc  si_edid_tx_composer.o [1]
ConState                0x2000b650     0x8  Data  Gb  si_connection_monitor.o [1]
ControlCommandsManager_I2CReadCommand
                        0x0802a82d    0xb6  Code  Lc  CommandsManager.o [1]
ControlCommandsManager_I2CWriteCommand
                        0x0802a791    0x90  Code  Lc  CommandsManager.o [1]
ControlCommandsManager_handleCommand
                        0x0802a72d    0x64  Code  Lc  CommandsManager.o [1]
ConvertAudioModes       0x080172c3    0xcc  Code  Lc  si_edid_tx_converter.o [1]
CopyKsvListPortion      0x0801db19    0x6c  Code  Lc  si_tx_hdcp.o [1]
CraReadBlockI2c         0x08013f31    0x68  Code  Lc  si_cra.o [1]
CraWriteBlockI2c        0x08013f99    0x92  Code  Lc  si_cra.o [1]
CreateMapPage           0x08015f83    0x54  Code  Lc  si_edid_tx_composer.o [1]
CtrlCommand_api         0x0802d1c4     0x4  Data  Gb  CommandsManager.o [1]
CurrentAudioStream      0x20009f32     0x1  Data  Lc  AudioDeviceManager.o [1]
DAP_C_ObjCtrl           0x2000a578     0x8  Data  Gb  TAS5713.o [1]
DAP_LR_ObjCtrl          0x2000a580     0x8  Data  Gb  TAS5727.o [1]
DCD_DevDisconnect       0x0800e96f     0x8  Code  Gb  usb_dcd.o [1]
DCD_EP_Close            0x0800e86b    0x24  Code  Gb  usb_dcd.o [1]
DCD_EP_ClrStall         0x0800e931    0x2e  Code  Gb  usb_dcd.o [1]
DCD_EP_Open             0x0800e831    0x3a  Code  Gb  usb_dcd.o [1]
DCD_EP_PrepareRx        0x0800e88f    0x24  Code  Gb  usb_dcd.o [1]
DCD_EP_SetAddress       0x0800e95f    0x10  Code  Gb  usb_dcd.o [1]
DCD_EP_Stall            0x0800e8f3    0x2e  Code  Gb  usb_dcd.o [1]
DCD_EP_Tx               0x0800e8bf    0x1e  Code  Gb  usb_dcd.o [1]
DCD_HandleInEP_ISR      0x0802a04b    0xc6  Code  Lc  usb_dcd_int.o [1]
DCD_HandleOutEP_ISR     0x0802a111    0xa0  Code  Lc  usb_dcd_int.o [1]
DCD_HandleRxStatusQueueLevel_ISR
                        0x0802a1b7    0x6c  Code  Lc  usb_dcd_int.o [1]
DCD_HandleUsbReset_ISR  0x0802a28d    0x70  Code  Lc  usb_dcd_int.o [1]
DCD_Init                0x0800e7a9    0x78  Code  Gb  usb_dcd.o [1]
DCD_WriteEmptyTxFifo    0x0802a223    0x6a  Code  Lc  usb_dcd_int.o [1]
DMA1_Stream0_IRQHandler
                        0x080147b7    0x2c  Code  Gb  I2C1LowLevel.o [1]
DMA1_Stream1_IRQHandler
                        0x0802d1f1          Code  Wk  startup_stm32f411xe.o [1]
DMA1_Stream2_IRQHandler
                        0x0802d1f5          Code  Wk  startup_stm32f411xe.o [1]
DMA1_Stream3_IRQHandler
                        0x0802d1f9          Code  Wk  startup_stm32f411xe.o [1]
DMA1_Stream4_IRQHandler
                        0x0802d1fd          Code  Wk  startup_stm32f411xe.o [1]
DMA1_Stream5_IRQHandler
                        0x0802d201          Code  Wk  startup_stm32f411xe.o [1]
DMA1_Stream6_IRQHandler
                        0x0801475d    0x52  Code  Gb  I2C1LowLevel.o [1]
DMA1_Stream7_IRQHandler
                        0x0802d241          Code  Wk  startup_stm32f411xe.o [1]
DMA2_Stream0_IRQHandler
                        0x0802d251          Code  Wk  startup_stm32f411xe.o [1]
DMA2_Stream1_IRQHandler
                        0x0802d255          Code  Wk  startup_stm32f411xe.o [1]
DMA2_Stream2_IRQHandler
                        0x0802d259          Code  Wk  startup_stm32f411xe.o [1]
DMA2_Stream3_IRQHandler
                        0x0802d25d          Code  Wk  startup_stm32f411xe.o [1]
DMA2_Stream4_IRQHandler
                        0x0802d261          Code  Wk  startup_stm32f411xe.o [1]
DMA2_Stream5_IRQHandler
                        0x0802d265          Code  Wk  startup_stm32f411xe.o [1]
DMA2_Stream6_IRQHandler
                        0x0802d269          Code  Wk  startup_stm32f411xe.o [1]
DMA2_Stream7_IRQHandler
                        0x0802d26d          Code  Wk  startup_stm32f411xe.o [1]
DMA_ClearFlag           0x08015129    0x1a  Code  Gb  stm32f4xx_dma.o [1]
DMA_Cmd                 0x080150f5    0x12  Code  Gb  stm32f4xx_dma.o [1]
DMA_DeInit              0x08014fe5    0xc0  Code  Gb  stm32f4xx_dma.o [1]
DMA_GetFlagStatus       0x08015107    0x22  Code  Gb  stm32f4xx_dma.o [1]
DMA_ITConfig            0x08015143    0x2c  Code  Gb  stm32f4xx_dma.o [1]
DMA_Init                0x080150a5    0x50  Code  Gb  stm32f4xx_dma.o [1]
DSP_DAO_ROUTER_INITIAL  0x0800aab4    0x40  Data  Lc  cs49844.o [1]
DSP_ObjCtrl             0x0800a924    0x6c  Data  Gb  cs49844.o [1]
DTS_INITIAL_CFG         0x0800b15c  0x13c8  Data  Lc  cs49844.o [1]
DTS_ULD_LOCATION        0x20009e18    0x20  Data  Gb  cs49844.o [1]
DebugMon_Handler        0x0802ce5f     0x2  Code  Gb  stm32f4xx_it.o [1]
Debug_initialize        0x0800da7d     0x8  Code  Gb  Debug.o [1]
Debug_printDebug        0x0800da99     0xe  Code  Gb  Debug.o [1]
Debug_printError        0x0800da85     0xc  Code  Gb  Debug.o [1]
Debug_printf            0x0800daa7    0xa8  Code  Lc  Debug.o [1]
Debug_writeString       0x0800db4f    0x14  Code  Lc  Debug.o [1]
Debug_writeUnsignedNumber
                        0x0800db63    0x38  Code  Lc  Debug.o [1]
DecodeDataBlockCollection
                        0x08017ed1   0x1d0  Code  Lc  si_edid_tx_decode_l.o [1]
DefaultAllowedScalerModes
                        0x0802c940    0x30  Data  Gb  si_edid_tx_tables.o [1]
DefaultSystemParams     0x0802c7d4    0x18  Data  Lc  StorageDeviceManager.o [1]
DoesDsSupports          0x08016475    0xa0  Code  Lc  si_edid_tx_analyzer.o [1]
DrvCpiProcessInterrupts
                        0x08013e7d    0xb0  Code  Gb  si_drv_cpi.o [1]
DrvGpioProcessInterrupts
                        0x08023fc7    0x1c  Code  Gb  si_drv_gpio.o [1]
EEpromDefaultParams     0x0800e97e     0x1  Data  Gb  SystemDefaultParams.o [1]
EXTI0_IRQHandler        0x0802d1e1          Code  Wk  startup_stm32f411xe.o [1]
EXTI15_10_IRQHandler    0x0802d239          Code  Wk  startup_stm32f411xe.o [1]
EXTI1_IRQHandler        0x08023c0d    0x1c  Code  Gb  si_platform.o [1]
EXTI2_IRQHandler        0x0802d1e5          Code  Wk  startup_stm32f411xe.o [1]
EXTI3_IRQHandler        0x0802d1e9          Code  Wk  startup_stm32f411xe.o [1]
EXTI4_IRQHandler        0x0802d1ed          Code  Wk  startup_stm32f411xe.o [1]
EXTI9_5_IRQHandler      0x0800e647     0x2  Code  Gb  GPIOLowLevel.o [1]
EXTI_ClearITPendingBit  0x08025597     0x2  Code  Gb  stm32f4xx_exti.o [1]
EXTI_GetITStatus        0x08025587    0x10  Code  Gb  stm32f4xx_exti.o [1]
EXTI_Init               0x08025521    0x66  Code  Gb  stm32f4xx_exti.o [1]
EdidCheckSumCalc        0x080151d5    0x16  Code  Lc  si_edid_tx_composer.o [1]
EdidDecodeBlock0        0x08016ad9    0xbc  Code  Lc  si_edid_tx_decode_h.o [1]
EdidDecodeBlockExtension
                        0x08016b9d    0x28  Code  Lc  si_edid_tx_decode_h.o [1]
EdidDecodeDtdOpt        0x08017bd5    0xce  Code  Lc  si_edid_tx_decode_l.o [1]
EdidRemedyList          0x0802c930    0x10  Data  Gb  si_edid_tx_tables.o [1]
EdidTxAddDviVideoModes  0x0801825f    0x92  Code  Gb  si_edid_tx_decode_l.o [1]
EdidTxAnalyze           0x080161b1   0x29e  Code  Gb  si_edid_tx_analyzer.o [1]
EdidTxCheckBlockCheckSum
                        0x0801775d    0x24  Code  Gb  si_edid_tx_decode_l.o [1]
EdidTxCompose           0x08015fe1   0x19a  Code  Gb  si_edid_tx_composer.o [1]
EdidTxConvert           0x0801738f   0x19c  Code  Gb  si_edid_tx_converter.o [1]
EdidTxDecodeDtd         0x0801786b   0x356  Code  Gb  si_edid_tx_decode_l.o [1]
EdidTxDecodeEdid        0x08016bc5   0x124  Code  Gb  si_edid_tx_decode_h.o [1]
EdidTxDsSdtdsGet        0x080165c1    0x12  Code  Gb  si_edid_tx_analyzer.o [1]
EdidTxFeatureMeetFilter
                        0x08016d09   0x524  Code  Gb  si_edid_tx_fmf.o [1]
EdidTxImageSizeGet      0x0801658b    0x36  Code  Gb  si_edid_tx_analyzer.o [1]
EdidTxOwnSadAndSpkSet   0x0801722d    0x7a  Code  Gb  si_edid_tx_converter.o [1]
EdidTxParseBlock        0x08018617    0x5a  Code  Gb  si_edid_tx_decode_l.o [1]
EdidTxParseBlock0       0x08016a09    0xd0  Code  Gb  si_edid_tx_decode_h.o [1]
EdidTxPostDecode        0x080182f5   0x2f6  Code  Gb  si_edid_tx_decode_l.o [1]
EdidTxReadBlock         0x080169c3    0x3c  Code  Gb  si_edid_tx_component.o [1]
EdidTxRemedyMaskBuild   0x080190f1    0xa4  Code  Gb  si_edid_black_list.o [1]
EdidTxScalerConvert     0x08019195   0x352  Code  Gb  si_edid_tx_scaler.o [1]
EdidTxWriteBlockToRx    0x08016a05     0x4  Code  Gb  si_edid_tx_component.o [1]
EepromDriver_deviceCapacity
                        0x0802a65d    0x12  Code  Gb  EepromDriver.o [1]
EepromDriver_initialize
                        0x0802a305     0xc  Code  Gb  EepromDriver.o [1]
EepromDriver_mapLogicalToPhysical
                        0x0802a311    0x1a  Code  Gb  EepromDriver.o [1]
EepromDriver_read       0x0802a361    0x2c  Code  Gb  EepromDriver.o [1]
EepromDriver_readData   0x0802a59f    0xb4  Code  Lc  EepromDriver.o [1]
EepromDriver_write      0x0802a32b    0x36  Code  Gb  EepromDriver.o [1]
EepromDriver_writeData  0x0802a38d   0x1ec  Code  Lc  EepromDriver.o [1]
EmbeddedSyncControlPageEnable
                        0x08019bb5     0xc  Code  Lc  si_drv_tpi_system.o [1]
EnableTransmitter       0x08018885    0x70  Code  Lc  sk_app_tx.o [1]
FLASH_IRQHandler        0x0802d1d9          Code  Wk  startup_stm32f411xe.o [1]
FPU_IRQHandler          0x0802d27d          Code  Wk  startup_stm32f411xe.o [1]
FillIndividual3dModes   0x080156b1    0x90  Code  Lc  si_edid_tx_composer.o [1]
FindHdmiSignature       0x0801b28d    0x5c  Code  Lc  si_drv_edid_rx.o [1]
FindNextSdtdConvertibleToDtd
                        0x0801560d    0x4c  Code  Lc  si_edid_tx_composer.o [1]
FinishAuthPart2         0x0801db01    0x18  Code  Lc  si_tx_hdcp.o [1]
GPIOLOWLevelIsr_ObjCtrl
                        0x0802d1ac     0x8  Data  Gb  GPIOLowLevel.o [1]
GPIOLowLevel_CS8422_ISR_Configure
                        0x0800e643     0x2  Code  Lc  GPIOLowLevel.o [1]
GPIOLowLevel_CS8422_ISR_Control
                        0x0800e645     0x2  Code  Lc  GPIOLowLevel.o [1]
GPIOLowLevel_Clr        0x0800e615    0x12  Code  Gb  GPIOLowLevel.o [1]
GPIOLowLevel_Configuration
                        0x0800e5c9    0x3a  Code  Gb  GPIOLowLevel.o [1]
GPIOLowLevel_RinputPinBit
                        0x0800e627    0x1c  Code  Gb  GPIOLowLevel.o [1]
GPIOLowLevel_Set        0x0800e603    0x12  Code  Gb  GPIOLowLevel.o [1]
GPIOMiddleLevel_Clr     0x0800dcb9     0x4  Code  Gb  GPIOMiddleLevel.o [1]
GPIOMiddleLevel_Read_InBit
                        0x0800dcbd     0x4  Code  Gb  GPIOMiddleLevel.o [1]
GPIOMiddleLevel_Set     0x0800dcb5     0x4  Code  Gb  GPIOMiddleLevel.o [1]
GPIO_Init               0x0800f4c1    0x70  Code  Gb  stm32f4xx_gpio.o [1]
GPIO_PinAFConfig        0x0800f541    0x24  Code  Gb  stm32f4xx_gpio.o [1]
GPIO_ReadInputDataBit   0x0800f531    0x10  Code  Gb  stm32f4xx_gpio.o [1]
GetRegName              0x0801bcad    0x30  Code  Lc  si_drv_repeater.o [1]
GetVideoModeIndex       0x08017781    0xea  Code  Lc  si_edid_tx_decode_l.o [1]
GrabDsDdcLine           0x08017549    0x4c  Code  Lc  si_drv_tpi_ddc_access.o [1]
HMI_SRV_OBJ             0x0802d118    0x10  Data  Gb  HMI_Service.o [1]
HMI_ServiceUser         0x08026211    0x78  Code  Gb  HMI_Service.o [1]
HMI_Service_CreateTask  0x08026295    0x72  Code  Gb  HMI_Service.o [1]
HMI_Service_EventSender
                        0x08025911    0x3e  Code  Lc  HMI_Service.o [1]
HMI_Service_checkEventTimoutOrFirstPressed
                        0x0802605d    0xc4  Code  Lc  HMI_Service.o [1]
HMI_Service_getSystemParams
                        0x08026307     0x4  Code  Lc  HMI_Service.o [1]
HMI_Service_handleCommand
                        0x08026121    0xf0  Code  Lc  HMI_Service.o [1]
HMI_Service_rstSystemParams
                        0x0802586b    0x4a  Code  Lc  HMI_Service.o [1]
HMI_Service_sendCommand
                        0x08025951   0x686  Code  Lc  HMI_Service.o [1]
HMI_Service_setDemo1n3_SysParams
                        0x080258b5    0x5c  Code  Lc  HMI_Service.o [1]
HMI_Service_setSystemParams
                        0x08025861     0xa  Code  Lc  HMI_Service.o [1]
HT68F30_BlinkFadeToDarkConverter
                        0x08027a35    0x50  Code  Gb  HT68F30.o [1]
HT68F30_BreathClear     0x08027b35     0xa  Code  Gb  HT68F30.o [1]
HT68F30_BreathConverter
                        0x08027b03    0x32  Code  Gb  HT68F30.o [1]
HT68F30_CleanALL        0x080278ff    0x4e  Code  Gb  HT68F30.o [1]
HT68F30_CleanLED        0x0802794d    0x3c  Code  Gb  HT68F30.o [1]
HT68F30_DarkConverter   0x08027c07    0x2c  Code  Gb  HT68F30.o [1]
HT68F30_DemoTimeOutLED  0x08027d3f     0xe  Code  Gb  HT68F30.o [1]
HT68F30_FadeToDarkConverter
                        0x08027a85    0x78  Code  Gb  HT68F30.o [1]
HT68F30_Flashing        0x08027c33    0x5e  Code  Gb  HT68F30.o [1]
HT68F30_IsControllingLED
                        0x08027d4d    0x10  Code  Gb  HT68F30.o [1]
HT68F30_LightBar_CreateTask
                        0x08027f1d    0x38  Code  Lc  HT68F30.o [1]
HT68F30_LightBar_task   0x08027d61   0x1bc  Code  Gb  HT68F30.o [1]
HT68F30_LightConverter  0x08027989    0x58  Code  Gb  HT68F30.o [1]
HT68F30_MuteLED         0x08027d2b     0xe  Code  Gb  HT68F30.o [1]
HT68F30_ObjCtrl         0x0802cf10    0x48  Data  Gb  HT68F30.o [1]
HT68F30_ScanningConverter
                        0x08027b3f    0x32  Code  Gb  HT68F30.o [1]
HT68F30_Set             0x080279e1    0x54  Code  Gb  HT68F30.o [1]
HT68F30_StepsClear      0x08027be5    0x22  Code  Gb  HT68F30.o [1]
HT68F30_StepsConverter  0x08027b7b    0x56  Code  Gb  HT68F30.o [1]
HT68F30_UpdateDemoTimeOutState
                        0x08027d39     0x6  Code  Gb  HT68F30.o [1]
HT68F30_Version         0x08027c91    0x9a  Code  Gb  HT68F30.o [1]
HT68F30_WriteI2C_Byte   0x08027fcd    0x44  Code  Gb  HT68F30_i2c.o [1]
HT68F30_setStatus       0x080278f1     0xe  Code  Gb  HT68F30.o [1]
HardFault_Handler       0x0802ce57     0x2  Code  Gb  stm32f4xx_it.o [1]
HdcpInstRec             0x2000b408    0x28  Data  Gb  si_tx_hdcp.o [1]
HdmiDeviceManager       0x0802d138    0x10  Data  Gb  sk953x_avr_repeater.o [1]
HdmiDeviceManager_CreateTask
                        0x080207c5    0x88  Code  Lc  sk953x_avr_repeater.o [1]
HdmiDeviceManager_GetHDMIPowerStatus
                        0x08020851     0x6  Code  Gb  sk953x_avr_repeater.o [1]
HdmiDeviceManager_GetMultiChannel
                        0x0802084d     0x4  Code  Lc  sk953x_avr_repeater.o [1]
HdmiDeviceManager_InstrSender
                        0x080205cb    0x34  Code  Lc  sk953x_avr_repeater.o [1]
HdmiDeviceManager_ServiceHandle
                        0x080206d3    0xf2  Code  Lc  sk953x_avr_repeater.o [1]
HdmiManager_DeviceEnable
                        0x08020599    0x32  Code  Lc  sk953x_avr_repeater.o [1]
HdmiManager_RepeaterTask
                        0x080205ff    0xd4  Code  Lc  sk953x_avr_repeater.o [1]
HpeStateSetSinglePort   0x08020c81    0xdc  Code  Lc  si_drv_msw_hpd.o [1]
I2C1_ER_IRQHandler      0x0802d21d          Code  Wk  startup_stm32f411xe.o [1]
I2C1_EV_IRQHandler      0x0802d219          Code  Wk  startup_stm32f411xe.o [1]
I2C2_ER_IRQHandler      0x0802d225          Code  Wk  startup_stm32f411xe.o [1]
I2C2_EV_IRQHandler      0x0802d221          Code  Wk  startup_stm32f411xe.o [1]
I2C2_readSlave          0x08029d7f    0x16  Code  Gb  I2C2LowLevel.o [1]
I2C2_writeSlave         0x08029d1b    0x14  Code  Gb  I2C2LowLevel.o [1]
I2C3_ER_IRQHandler      0x0802d279          Code  Wk  startup_stm32f411xe.o [1]
I2C3_EV_IRQHandler      0x0802d275          Code  Wk  startup_stm32f411xe.o [1]
I2C_AcknowledgeConfig   0x08014f59    0x14  Code  Gb  stm32f4xx_i2c.o [1]
I2C_CheckEvent          0x08014f97    0x1a  Code  Gb  stm32f4xx_i2c.o [1]
I2C_Cmd                 0x08014f09    0x14  Code  Gb  stm32f4xx_i2c.o [1]
I2C_DMACmd              0x08014f83    0x14  Code  Gb  stm32f4xx_i2c.o [1]
I2C_DeInit              0x08014df1    0x52  Code  Gb  stm32f4xx_i2c.o [1]
I2C_GenerateSTART       0x08014f1d    0x16  Code  Gb  stm32f4xx_i2c.o [1]
I2C_GenerateSTOP        0x08014f33    0x16  Code  Gb  stm32f4xx_i2c.o [1]
I2C_GetFlagStatus       0x08014fb1    0x34  Code  Gb  stm32f4xx_i2c.o [1]
I2C_Init                0x08014e43    0xb0  Code  Gb  stm32f4xx_i2c.o [1]
I2C_Send7bitAddress     0x08014f49    0x10  Code  Gb  stm32f4xx_i2c.o [1]
I2C_SendData            0x08014f7f     0x4  Code  Gb  stm32f4xx_i2c.o [1]
I2C_SoftwareResetCmd    0x08014f6d    0x12  Code  Gb  stm32f4xx_i2c.o [1]
I2C_readSlave           0x08014a65    0x56  Code  Gb  I2C1LowLevel.o [1]
I2C_writeSlave          0x080149fb    0x6a  Code  Gb  I2C1LowLevel.o [1]
I2sSourceGroupGet       0x0801e6ad    0x16  Code  Lc  si_tx_audio.o [1]
IRCMDPrgHandle          0x0802d0b4     0x8  Data  Gb  IRCmdHandler.o [1]
IRCmdHandle             0x0802d0a4    0x10  Data  Gb  IRCmdHandler.o [1]
IRCmdHandler_AdmitRepeatUserEvent
                        0x08028847    0x4a  Code  Lc  IRCmdHandler.o [1]
IRCmdHandler_CreateTask
                        0x08028b4b    0x48  Code  Lc  IRCmdHandler.o [1]
IRCmdHandler_Initialize
                        0x08028b23    0x28  Code  Lc  IRCmdHandler.o [1]
IRCmdHandler_InsertQueue
                        0x0802881b    0x2c  Code  Lc  IRCmdHandler.o [1]
IRCmdHandler_NEC_CmdEvent
                        0x080288ff    0x82  Code  Lc  IRCmdHandler.o [1]
IRCmdHandler_ProgramCode_UserEventHandle
                        0x080288cf    0x30  Code  Lc  IRCmdHandler.o [1]
IRCmdHandler_ProgramRemoteEvent
                        0x08028981    0x5a  Code  Lc  IRCmdHandler.o [1]
IRCmdHandler_ServiceHandle
                        0x080289db   0x148  Code  Lc  IRCmdHandler.o [1]
IRCmdHandler_TriggerFactoryModeEventHandle
                        0x080286b9    0xac  Code  Lc  IRCmdHandler.o [1]
IRCmdHandler_UserEventHandle
                        0x08028765    0x70  Code  Lc  IRCmdHandler.o [1]
IRCmdHandler_VizioSpecialUserEvent
                        0x08028891    0x3e  Code  Lc  IRCmdHandler.o [1]
IRCmdHandler_getQueue   0x080287e9    0x32  Code  Lc  IRCmdHandler.o [1]
IRCmdHandler_getQueueNumber
                        0x080287d5    0x14  Code  Lc  IRCmdHandler.o [1]
IRLowLevelDecoder_CreateTask
                        0x0802861d    0x46  Code  Gb  IRLowLevelDecoder.o [1]
IRLowLevelDecoder_DecoderTask
                        0x080284b5   0x134  Code  Lc  IRLowLevelDecoder.o [1]
IRLowLevelDecoder_JVC_Decode
                        0x080282df    0xc4  Code  Lc  IRLowLevelDecoder.o [1]
IRLowLevelDecoder_NEC_Decode
                        0x080283a3   0x112  Code  Lc  IRLowLevelDecoder.o [1]
IRLowLevelDecoder_RC5_Decode
                        0x08028011    0xce  Code  Lc  IRLowLevelDecoder.o [1]
IRLowLevelDecoder_SONY_Decode
                        0x08028207    0xce  Code  Lc  IRLowLevelDecoder.o [1]
IRLowLevelDecoder_Sharp_Decode
                        0x080280df   0x128  Code  Lc  IRLowLevelDecoder.o [1]
IRLowLevel_clrRowData   0x0802bb9f    0x10  Code  Lc  IRLowLevel.o [1]
IRLowLevel_getQueueNumber
                        0x0802bb8d    0x12  Code  Lc  IRLowLevel.o [1]
IRLowLevel_getRowData   0x0802bbaf    0x4a  Code  Lc  IRLowLevel.o [1]
IRLowLevel_initialize   0x0802bbf9    0xb4  Code  Gb  IRLowLevel.o [1]
IR_CMD_KEY_MAP          0x08028cf0    0x5c  Data  Lc  IRCmdHandler.o [1]
IR_ObjCtrl              0x0802d170     0xc  Data  Gb  IRLowLevel.o [1]
InfoFrameEnable         0x08019c29    0x46  Code  Lc  si_drv_tpi_system.o [1]
InfoFrameSelectCodeGet  0x08019be9    0x40  Code  Lc  si_drv_tpi_system.o [1]
InfoInstRec             0x2000b690     0x4  Data  Gb  si_tx_info_frm.o [1]
InputAudVidConfig       0x08018689   0x112  Code  Lc  sk_app_tx.o [1]
InputNoHdcp             0x2000a5a0     0x1  Data  Gb  si_repeater_component.o [1]
InvalidateOverclockedSdtds
                        0x080153d9    0xa4  Code  Lc  si_edid_tx_composer.o [1]
IsAudioToBePlayedLocally
                        0x080172a7    0x1c  Code  Lc  si_edid_tx_converter.o [1]
IsAudioTransmissionAllowed
                        0x0801e6c3    0xce  Code  Lc  si_tx_audio.o [1]
IsInfoFrameLoaded       0x0801e215    0x56  Code  Lc  si_tx_info_frm.o [1]
IsProtectedAudioTransmitting
                        0x0801e28f    0x14  Code  Lc  si_tx_info_frm.o [1]
IsUpdatedTaskTimerExpired
                        0x0801f4c1    0x24  Code  Lc  si_sac_main.o [1]
Is_Start_Counter        0x2000a3d6     0x1  Data  Lc  BTHandler.o [1]
KICKSTART_CFG           0x08008264    0x20  Data  Lc  cs49844.o [1]
LS_RS_AC3_GAIN          0x08010974    0x34  Data  Lc  AudioDeviceManager.o [1]
LS_RS_DTS_GAIN          0x080109a8    0x34  Data  Lc  AudioDeviceManager.o [1]
LS_RS_PCM51_GAIN        0x080109dc    0x34  Data  Lc  AudioDeviceManager.o [1]
LightBar_DemoTimeOut    0x2000b603     0x1  Data  Lc  HT68F30.o [1]
MASTER_GAIN_TABLE       0x08010914    0x60  Data  Lc  AudioDeviceManager.o [1]
MakeDtdFromDtd          0x08015309    0xd0  Code  Lc  si_edid_tx_composer.o [1]
MakeDtdFromSdtd         0x080151eb   0x11e  Code  Lc  si_edid_tx_composer.o [1]
MemManage_Handler       0x0802ce59     0x2  Code  Gb  stm32f4xx_it.o [1]
Mixer                   0x0801d9ab    0x14  Code  Lc  si_tx_hdcp.o [1]
Mrand                   0x08012bd9    0x36  Code  Gb  si_cdc_heac.o [1]
NMI_Handler             0x0802ce55     0x2  Code  Gb  stm32f4xx_it.o [1]
NVIC_Init               0x0800fb93    0x58  Code  Gb  misc.o [1]
NVIC_PriorityGroupConfig
                        0x0800fb89     0xa  Code  Gb  misc.o [1]
NVIC_SetVectorTable     0x0800fbeb     0xc  Code  Gb  misc.o [1]
NewKsvHash              0x0801d999    0x12  Code  Lc  si_tx_hdcp.o [1]
OTG_FS_IRQHandler       0x0802ce89    0x20  Code  Gb  stm32f4xx_it.o [1]
OTG_FS_WKUP_IRQHandler  0x0802ce61    0x28  Code  Gb  stm32f4xx_it.o [1]
OnTimer                 0x0801db85   0x27c  Code  Lc  si_tx_hdcp.o [1]
OsdBackgroundVideoEnable
                        0x08022bdb    0x4c  Code  Lc  sk_app_switch.o [1]
PCM_51_BPS_PARMS        0x08010a10    0x40  Data  Lc  AudioDeviceManager.o [1]
PCM_51_DIS_BPS_PARMS    0x080108a8    0x40  Data  Lc  AudioDeviceManager.o [1]
PCM_INITIAL             0x08009914  0x1010  Data  Lc  cs49844.o [1]
PCM_ULD_LOCATION        0x20009dd8    0x20  Data  Gb  cs49844.o [1]
PREKICKSTART_CFG        0x08008284   0x210  Data  Lc  cs49844.o [1]
PVD_IRQHandler          0x0802d1cd          Code  Wk  startup_stm32f411xe.o [1]
ParseHdmiLlcDataBlock   0x08017ca3   0x22e  Code  Lc  si_edid_tx_decode_l.o [1]
Pca9557ReadModifyWrite  0x08024397    0x2a  Code  Lc  si_gpio.o [1]
PendSV_Handler          0x0800dd91          Code  Gb  portasm.o [1]
PhysicalPins            0x0800e648   0x160  Data  Gb  GPIOLowLevel.o [1]
PowerHandle             0x0802cff8    0x28  Data  Gb  PowerHandler.o [1]
PowerHandler_Initialize
                        0x0802b96d    0x42  Code  Lc  PowerHandler.o [1]
PowerHandler_PowerCtrl  0x0802ba31    0x14  Code  Lc  PowerHandler.o [1]
PowerHandler_PowerToggle
                        0x0802ba21    0x10  Code  Lc  PowerHandler.o [1]
PowerHandler_RegisterHandle
                        0x0802b9af    0x22  Code  Lc  PowerHandler.o [1]
PowerHandler_Task       0x0802ba45    0xee  Code  Lc  PowerHandler.o [1]
PowerHandler_TurnOffDone
                        0x0802b9d1    0x22  Code  Lc  PowerHandler.o [1]
PowerHandler_TurnOnDone
                        0x0802b9f3    0x22  Code  Lc  PowerHandler.o [1]
PowerHandler_getPowerHandleState
                        0x0802ba1b     0x6  Code  Lc  PowerHandler.o [1]
PowerHandler_getPowerState
                        0x0802ba15     0x6  Code  Lc  PowerHandler.o [1]
PowerHandler_getSystemResetType
                        0x0802bb39     0x4  Code  Lc  PowerHandler.o [1]
PowerManager_clrSystemResetType
                        0x0802bb3d     0x2  Code  Lc  PowerHandler.o [1]
PrintAlways             0x080230d5     0x2  Code  Gb  sk_app_support.o [1]
PrintHdcpStatus         0x0801d97d    0x1c  Code  Lc  si_tx_hdcp.o [1]
ProcessBstatus          0x0801dab5    0x2c  Code  Lc  si_tx_hdcp.o [1]
RCC_AHB1PeriphClockCmd  0x0800f5e1    0x12  Code  Gb  stm32f4xx_rcc.o [1]
RCC_AHB2PeriphClockCmd  0x0800f5f3    0x12  Code  Gb  stm32f4xx_rcc.o [1]
RCC_APB1PeriphClockCmd  0x0800f605    0x12  Code  Gb  stm32f4xx_rcc.o [1]
RCC_APB1PeriphResetCmd  0x0800f629    0x12  Code  Gb  stm32f4xx_rcc.o [1]
RCC_APB2PeriphClockCmd  0x0800f617    0x12  Code  Gb  stm32f4xx_rcc.o [1]
RCC_GetClocksFreq       0x0800f565    0x7c  Code  Gb  stm32f4xx_rcc.o [1]
RCC_IRQHandler          0x0802d1dd          Code  Wk  startup_stm32f411xe.o [1]
RFConnectionFail_counter
                        0x2000a51c     0x2  Data  Lc  RFHandler.o [1]
RFHandle                0x0802d1b4     0x8  Data  Gb  RFHandler.o [1]
RFHandler_CreateTask    0x0802aaf9    0x56  Code  Lc  RFHandler.o [1]
RFHandler_InstrSender   0x0802ab4f    0x2c  Code  Lc  RFHandler.o [1]
RFHandler_ServiceHandle
                        0x0802ab7d   0x168  Code  Lc  RFHandler.o [1]
RTC_Alarm_IRQHandler    0x0802d23d          Code  Wk  startup_stm32f411xe.o [1]
RTC_WKUP_IRQHandler     0x0802d1d5          Code  Wk  startup_stm32f411xe.o [1]
RearrangeDtds           0x0801556d    0xa0  Code  Lc  si_edid_tx_composer.o [1]
RearrangeSdtds          0x0801547d    0xe4  Code  Lc  si_edid_tx_composer.o [1]
Region$$Table$$Base     0x0802d020           --   Gb  - Linker created -
Region$$Table$$Limit    0x0802d04c           --   Gb  - Linker created -
ReleaseDsDdcLine        0x08017595    0x2c  Code  Lc  si_drv_tpi_ddc_access.o [1]
RepeaterConAvMuteSet    0x0801edfb    0x56  Code  Gb  si_connection_monitor.o [1]
RepeaterConDisableInput
                        0x0801ed49    0x18  Code  Gb  si_connection_monitor.o [1]
RepeaterConOnTxHpdTurnOn
                        0x0801ed61    0x3a  Code  Gb  si_connection_monitor.o [1]
RepeaterConnectionMonitor
                        0x0801ed9b    0x60  Code  Gb  si_connection_monitor.o [1]
RepeaterCurrentInputPortIsSetToNoHdcp
                        0x0801b197    0x1c  Code  Gb  si_repeater_component.o [1]
RepeaterInstanceGetFromTx
                        0x0801b901    0x20  Code  Lc  sk_app_repeater.o [1]
RepeaterIsrHandler      0x0801eec7    0xe0  Code  Gb  si_repeater_isr.o [1]
RepeaterOnMainPortScdtChange
                        0x0801ee59    0x6e  Code  Lc  si_repeater_isr.o [1]
RepeaterResetTxHdcpStatusData
                        0x0801ab45    0x6a  Code  Gb  si_repeater_component.o [1]
RepeaterSADs            0x08017530    0x18  Data  Gb  si_edid_tx_converter.o [1]
RepeaterShaHandler      0x0801ec7d    0x3e  Code  Gb  si_repeater_sha.o [1]
RepeaterShaHandlerInitialize
                        0x0801ecbb    0x16  Code  Gb  si_repeater_sha.o [1]
RepeaterShaSetLength    0x0801ed25     0x4  Code  Gb  si_repeater_sha.o [1]
RepeaterSourceToOutputSel
                        0x0801b921    0x66  Code  Lc  sk_app_repeater.o [1]
ReportIssue             0x0801951d    0x1a  Code  Lc  si_tx_component.o [1]
RequestTmdsOutputEnable
                        0x08019537    0x66  Code  Lc  si_tx_component.o [1]
Reset_Handler           0x0802d149          Code  Wk  startup_stm32f411xe.o [1]
RtpiExecuteCbusCmd      0x080255fd    0xcc  Code  Gb  si_rtpi_cbus.o [1]
RtpiExecuteCecCmd       0x080256d1   0x164  Code  Gb  si_rtpi_cec.o [1]
RtpiRegs0x18            0x08025169    0x1c  Code  Gb  si_rtpi_register_functions.o [1]
RtpiRegs0x1C            0x08025185    0x26  Code  Gb  si_rtpi_register_functions.o [1]
RtpiRegs0x21            0x080251ab    0x3c  Code  Gb  si_rtpi_register_functions.o [1]
RtpiRegs0x23            0x080251e7    0x2a  Code  Gb  si_rtpi_register_functions.o [1]
RtpiRegs0x24            0x08025211     0x8  Code  Gb  si_rtpi_register_functions.o [1]
RtpiRegs0x28            0x08025219    0x5c  Code  Gb  si_rtpi_register_functions.o [1]
RtpiRegs0x2B            0x08025285     0x8  Code  Gb  si_rtpi_register_functions.o [1]
RtpiRegs0x2C            0x0802528d     0x6  Code  Gb  si_rtpi_register_functions.o [1]
RtpiRegs0x2D            0x0802529d     0x8  Code  Gb  si_rtpi_register_functions.o [1]
RtpiRegs0x30            0x080252a5     0x4  Code  Gb  si_rtpi_register_functions.o [1]
RtpiRegs0x33            0x080252a9    0x10  Code  Gb  si_rtpi_register_functions.o [1]
RtpiRegs0x34            0x080252b9    0x10  Code  Gb  si_rtpi_register_functions.o [1]
RtpiRegs0x35            0x080252c9    0x10  Code  Gb  si_rtpi_register_functions.o [1]
RtpiRegs0x36            0x080252eb    0x10  Code  Gb  si_rtpi_register_functions.o [1]
RtpiRegs0x37            0x080252fb    0x10  Code  Gb  si_rtpi_register_functions.o [1]
RtpiRegs0x38            0x0802530b     0x6  Code  Gb  si_rtpi_register_functions.o [1]
RtpiRegs0x6F            0x08025311   0x1ec  Code  Gb  si_rtpi_register_functions.o [1]
RxAudInstance           0x2000a534     0x8  Data  Gb  si_audio_component.o [1]
RxAudState              0x2000b570     0xc  Data  Gb  sk_app_audio_rx.o [1]
RxAudStatus             0x2000b57c     0x8  Data  Gb  sk_app_audio_rx.o [1]
RxAudioConfigLayout     0x08022451    0x3e  Code  Lc  sk_app_audio_rx.o [1]
RxAudioIntStatus        0x2000b598     0xc  Data  Gb  si_drv_audio.o [1]
RxAudioMuteSet          0x0802248f    0x66  Code  Lc  sk_app_audio_rx.o [1]
SDIO_IRQHandler         0x0802d245          Code  Wk  startup_stm32f411xe.o [1]
SET_TEST_MODE           0x2000b69c     0x4  Data  Gb  usbd_core.o [1]
SPI1_IRQHandler         0x0802d229          Code  Wk  startup_stm32f411xe.o [1]
SPI2_IRQHandler         0x0802d22d          Code  Wk  startup_stm32f411xe.o [1]
SPI3_IRQHandler         0x0802d24d          Code  Wk  startup_stm32f411xe.o [1]
SPI4_IRQHandler         0x0802d281          Code  Wk  startup_stm32f411xe.o [1]
SPI5_IRQHandler         0x0802d285          Code  Wk  startup_stm32f411xe.o [1]
SPILowLevel_isEnable    0x0800cb81     0x6  Code  Gb  SPILowLevel.o [1]
SPI_I2S_GetFlagStatus   0x0800dd61     0xe  Code  Gb  stm32f4xx_spi.o [1]
SPI_mutex_lock          0x0800cc2d    0x26  Code  Gb  SPILowLevel.o [1]
SPI_mutex_unlock        0x0800cc53    0x26  Code  Gb  SPILowLevel.o [1]
SPI_read                0x0800cbab    0x38  Code  Gb  SPILowLevel.o [1]
SPI_readBuffer          0x0800ccb3    0x38  Code  Gb  SPILowLevel.o [1]
SPI_selectChip          0x0800cbed    0x26  Code  Gb  SPILowLevel.o [1]
SPI_unselectChip        0x0800cc13    0x1a  Code  Gb  SPILowLevel.o [1]
SPI_write               0x0800cb87    0x24  Code  Gb  SPILowLevel.o [1]
SPI_writeBuffer         0x0800cc81    0x32  Code  Gb  SPILowLevel.o [1]
SRCLowLevel_ObjCtrl     0x0802cf9c    0x30  Data  Gb  cs8422.o [1]
STORAGE_OBJ             0x0802d128    0x10  Data  Gb  StorageDeviceManager.o [1]
SUB_AC321_GAIN          0x08010b20    0x34  Data  Lc  AudioDeviceManager.o [1]
SUB_AC351_GAIN          0x08010b54    0x34  Data  Lc  AudioDeviceManager.o [1]
SUB_DTS21_GAIN          0x08010ab8    0x34  Data  Lc  AudioDeviceManager.o [1]
SUB_DTS51_GAIN          0x08010aec    0x34  Data  Lc  AudioDeviceManager.o [1]
SUB_PCM21_GAIN          0x08010b88    0x34  Data  Lc  AudioDeviceManager.o [1]
SUB_PCM51_GAIN          0x08010bbc    0x34  Data  Lc  AudioDeviceManager.o [1]
SVC_Handler             0x0800ddf5          Code  Gb  portasm.o [1]
SYSCFG_EXTILineConfig   0x080255a9    0x22  Code  Gb  stm32f4xx_syscfg.o [1]
SYS_CEC_ARC_APP_TASK    0x2000a328     0x1  Data  Gb  sk953x_avr_repeater.o [1]
SYS_CEC_SAC_APP_TASK    0x2000a32a     0x2  Data  Gb  sk953x_avr_repeater.o [1]
SYS_CEC_TASK            0x2000b6a7     0x1  Data  Gb  sk_app_cec.o [1]
SendBksvToUsFifo        0x0801dae1    0x20  Code  Lc  si_tx_hdcp.o [1]
SendNvramCommand        0x0801cee5    0x38  Code  Lc  si_drv_nvram_sram.o [1]
SetIndirectLegacyOffset
                        0x0801e10d    0x1e  Code  Lc  si_drv_tpi_access.o [1]
SetIndirectLegacyPage   0x0801e0ed    0x20  Code  Lc  si_drv_tpi_access.o [1]
SignalAvailable         0x20009f2f     0x1  Data  Lc  AudioDeviceManager.o [1]
SiiCbCecSacMessageHandler
                        0x0802252b    0x42  Code  Gb  sk_app_audio_rx.o [1]
SiiCbCecStandby         0x0801b6dd    0x14  Code  Gb  sk_app_cec.o [1]
SiiCbCecSwitchMessageHandler
                        0x0801b6f7     0xe  Code  Gb  sk_app_cec.o [1]
SiiCbCecSwitchRxHpdGet  0x0801b6f1     0x6  Code  Gb  sk_app_cec.o [1]
SiiCbusConfigure        0x080225e1    0x10  Code  Gb  si_cbus_component.o [1]
SiiCbusInstanceSet      0x080225f1    0x28  Code  Gb  si_cbus_component.o [1]
SiiCbusInstanceSetBasedOnPort
                        0x08022619    0x2e  Code  Gb  si_cbus_component.o [1]
SiiCdcConfig            0x08011781    0x6a  Code  Gb  si_cdc_main.o [1]
SiiCdcDeviceDisconnect  0x08012b1f    0x54  Code  Gb  si_cdc_main.o [1]
SiiCdcFoundHostListGet  0x0801efbf     0x8  Code  Gb  si_cdc_component.o [1]
SiiCdcHpdSetState       0x08012b95    0x3e  Code  Gb  si_cdc_main.o [1]
SiiCdcInstanceSet       0x0801efb5     0xa  Code  Gb  si_cdc_component.o [1]
SiiCdcNumberOfFoundHostsGet
                        0x0801efc7     0xa  Code  Gb  si_cdc_component.o [1]
SiiCdcSrvStart          0x08012afb    0x24  Code  Gb  si_cdc_main.o [1]
SiiCdcTaskInit          0x080117f5    0x4e  Code  Gb  si_cdc_main.o [1]
SiiCdcTaskProcess       0x08012997   0x158  Code  Gb  si_cdc_main.o [1]
SiiCecAdjacentPA        0x0801cce7    0x2c  Code  Gb  si_cec_component.o [1]
SiiCecAdjacentPhysAddrGet
                        0x0801cdc3    0x44  Code  Gb  si_cec_component.o [1]
SiiCecAppInputPortChangeHandler
                        0x0801b6b7    0x12  Code  Gb  sk_app_cec.o [1]
SiiCecCallbackRegisterParser
                        0x0801cabd    0x2c  Code  Gb  si_cec_component.o [1]
SiiCecCallbackRegisterSet
                        0x0801cae9    0x30  Code  Gb  si_cec_component.o [1]
SiiCecCbEnumerateComplete
                        0x0801b705     0xa  Code  Gb  sk_app_cec.o [1]
SiiCecCbInputPortSet    0x0801b6c9    0x14  Code  Gb  sk_app_cec.o [1]
SiiCecConfigure         0x0801ca5d    0x1e  Code  Gb  si_cec_component.o [1]
SiiCecCpiWrite          0x0801ce07    0x24  Code  Gb  si_cec_component.o [1]
SiiCecDeviceLaIsAvailable
                        0x0801c21f    0x18  Code  Gb  si_cec_controller.o [1]
SiiCecEnumerateDeviceLa
                        0x0801c499    0x1e  Code  Gb  si_cec_controller.o [1]
SiiCecEnumerateDevices  0x0801c4b7    0x32  Code  Gb  si_cec_controller.o [1]
SiiCecFeatureAbortSend  0x0801ce59    0x1a  Code  Gb  si_cec_component.o [1]
SiiCecFeatureAbortSendEx
                        0x0801ce2b    0x2e  Code  Gb  si_cec_component.o [1]
SiiCecGetActiveSourceLA
                        0x0801ccd9     0xe  Code  Gb  si_cec_component.o [1]
SiiCecGetAvailableLa    0x0801c437    0x2c  Code  Gb  si_cec_controller.o [1]
SiiCecGetDeviceLA       0x0801cbfd     0xe  Code  Gb  si_cec_component.o [1]
SiiCecGetDevicePA       0x0801cc57     0xc  Code  Gb  si_cec_component.o [1]
SiiCecGetDeviceType     0x0801cc97     0xc  Code  Gb  si_cec_component.o [1]
SiiCecGetPowerState     0x0801cb71     0xa  Code  Gb  si_cec_component.o [1]
SiiCecHandler           0x0801c78f   0x17e  Code  Gb  si_cec_controller.o [1]
SiiCecInitialize        0x0801c98d    0xca  Code  Gb  si_cec_component.o [1]
SiiCecInstanceGet       0x0801ca97     0xa  Code  Gb  si_cec_component.o [1]
SiiCecInstanceSet       0x0801caa1    0x1c  Code  Gb  si_cec_component.o [1]
SiiCecIsAdjacentLA      0x0801cd13    0x2e  Code  Gb  si_cec_component.o [1]
SiiCecIsVirtualDevicePresent
                        0x0801cc0b     0xe  Code  Gb  si_cec_component.o [1]
SiiCecLaToPort          0x0801cbdf    0x1e  Code  Gb  si_cec_component.o [1]
SiiCecOneTouchPlay      0x0801b879    0x22  Code  Gb  si_cec_tx.o [1]
SiiCecPortSelectGet     0x0801cb19     0xa  Code  Gb  si_cec_component.o [1]
SiiCecPortSelectSet     0x0801cb23     0xa  Code  Gb  si_cec_component.o [1]
SiiCecPortToActSrcSelect
                        0x0801cd91    0x32  Code  Gb  si_cec_component.o [1]
SiiCecPortToPA          0x0801cba7    0x38  Code  Gb  si_cec_component.o [1]
SiiCecResume            0x0801ca93     0x4  Code  Gb  si_cec_component.o [1]
SiiCecRoutingChangeSend
                        0x0801f29b    0x48  Code  Gb  si_cec_switch_api.o [1]
SiiCecRoutingInformationSend
                        0x0801f271    0x2a  Code  Gb  si_cec_switch_api.o [1]
SiiCecSacAddFormat      0x0801f5b1    0x6c  Code  Gb  si_sac_main.o [1]
SiiCecSacAudioFormatDetailsGet
                        0x0801f35d    0x46  Code  Gb  si_sac_main.o [1]
SiiCecSacConfig         0x0801f30d    0x50  Code  Gb  si_sac_main.o [1]
SiiCecSacInitiate       0x0801fbf9     0xc  Code  Gb  si_sac_main.o [1]
SiiCecSacIsMuted        0x0801f3b1     0xe  Code  Gb  si_sac_main.o [1]
SiiCecSacIsSysAudioModeEnabled
                        0x0801f3a3     0xe  Code  Gb  si_sac_main.o [1]
SiiCecSacMute           0x0801f413    0x5e  Code  Gb  si_sac_main.o [1]
SiiCecSacReportAudioCapabilitySend
                        0x08022367    0x92  Code  Gb  si_sac_msg.o [1]
SiiCecSacReportAudioStatusSend
                        0x08022331    0x1a  Code  Gb  si_sac_msg.o [1]
SiiCecSacRequestAudioCapabilitySend
                        0x080223fd    0x2c  Code  Gb  si_sac_msg.o [1]
SiiCecSacSetSystemAudioModeSend
                        0x08022321    0x10  Code  Gb  si_sac_msg.o [1]
SiiCecSacSrvStart       0x0801fbd3    0x16  Code  Gb  si_sac_main.o [1]
SiiCecSacSrvStop        0x0801fbe9    0x10  Code  Gb  si_sac_main.o [1]
SiiCecSacSystemAudioModeStatusSend
                        0x0802234b    0x1c  Code  Gb  si_sac_msg.o [1]
SiiCecSacTaskInit       0x0801f47d    0x2a  Code  Gb  si_sac_main.o [1]
SiiCecSacTaskProcess    0x0801f925   0x28a  Code  Gb  si_sac_main.o [1]
SiiCecSacTerminate      0x0801fc05     0xa  Code  Gb  si_sac_main.o [1]
SiiCecSacUserControlPressedSend
                        0x08022429     0xc  Code  Gb  si_sac_msg.o [1]
SiiCecSacUserControlReleasedSend
                        0x08022441     0xe  Code  Gb  si_sac_msg.o [1]
SiiCecSacVolumeGet      0x0801f3cf     0xa  Code  Gb  si_sac_main.o [1]
SiiCecSacVolumeSet      0x0801f3bf    0x10  Code  Gb  si_sac_main.o [1]
SiiCecSacVolumeStep     0x0801f3d9    0x3a  Code  Gb  si_sac_main.o [1]
SiiCecSendActiveSource  0x0801b78d     0xe  Code  Gb  si_cec_tx.o [1]
SiiCecSendDeckStatus    0x0801c0c9    0x14  Code  Gb  si_cec_controller.o [1]
SiiCecSendMenuStatus    0x0801c0b5    0x14  Code  Gb  si_cec_controller.o [1]
SiiCecSendMessage       0x0801cb65     0xc  Code  Gb  si_cec_component.o [1]
SiiCecSendMessageEx     0x0801cb2d    0x38  Code  Gb  si_cec_component.o [1]
SiiCecSendMessageTask   0x0801c53f     0xc  Code  Gb  si_cec_controller.o [1]
SiiCecSendMessageTaskEx
                        0x0801c4e9    0x56  Code  Gb  si_cec_controller.o [1]
SiiCecSendReportPhysicalAddress
                        0x0801c089    0x2c  Code  Gb  si_cec_controller.o [1]
SiiCecSendReportPowerStatus
                        0x0801c0f7    0x14  Code  Gb  si_cec_controller.o [1]
SiiCecSendVendorId      0x0801c10b    0x2c  Code  Gb  si_cec_controller.o [1]
SiiCecSetActiveSource   0x0801ccbd    0x10  Code  Gb  si_cec_component.o [1]
SiiCecSetActiveSourcePA
                        0x0801cccd     0xc  Code  Gb  si_cec_component.o [1]
SiiCecSetDeviceLA       0x0801cc2b    0x2c  Code  Gb  si_cec_component.o [1]
SiiCecSetDevicePA       0x0801cc63    0x34  Code  Gb  si_cec_component.o [1]
SiiCecSetOsdName        0x0801c463    0x36  Code  Gb  si_cec_controller.o [1]
SiiCecSetPowerState     0x0801cb7b    0x2c  Code  Gb  si_cec_component.o [1]
SiiCecSetSourceActive   0x0801cca3    0x1a  Code  Gb  si_cec_component.o [1]
SiiCecSetVirtualDevLA   0x0801cc19    0x12  Code  Gb  si_cec_component.o [1]
SiiCecStandby           0x0801ca8f     0x4  Code  Gb  si_cec_component.o [1]
SiiCecStatus            0x0801ca7b    0x14  Code  Gb  si_cec_component.o [1]
SiiCecSwitchConfig      0x0801f001    0x18  Code  Gb  si_cec_switch_api.o [1]
SiiCecSwitchSendRouteInfo
                        0x0801f261    0x10  Code  Gb  si_cec_switch_api.o [1]
SiiCecSwitchSources     0x0801fe33    0x4c  Code  Gb  si_cec_rx.o [1]
SiiCecSwitchSrvStart    0x0801f251    0x10  Code  Gb  si_cec_switch_api.o [1]
SiiCecSwitchTaskInit    0x0801f019    0x22  Code  Gb  si_cec_switch_api.o [1]
SiiCecSwitchTaskProcess
                        0x0801f179    0xcc  Code  Gb  si_cec_switch_api.o [1]
SiiCecUpdateLogicalDeviceInfo
                        0x0801fc89    0x98  Code  Gb  si_cec_rx.o [1]
SiiCecValidateKeyCode   0x0801c075    0x14  Code  Gb  si_cec_controller.o [1]
SiiCraInitialize        0x08014085    0x52  Code  Gb  si_cra.o [1]
SiiDrcTpiDisableInterruptStandby
                        0x08019d3d    0x1e  Code  Gb  si_drv_tpi_system.o [1]
SiiDrvArcConfigureArcPin
                        0x080228a1    0x2c  Code  Gb  si_drv_arc.o [1]
SiiDrvArcInitialize     0x08022881    0x1c  Code  Gb  si_drv_arc.o [1]
SiiDrvArcResume         0x0802286f     0x4  Code  Gb  si_drv_arc.o [1]
SiiDrvArcStandby        0x08022869     0x6  Code  Gb  si_drv_arc.o [1]
SiiDrvCbusConfigure     0x080245dd     0x8  Code  Gb  si_drv_cbus_main.o [1]
SiiDrvCbusInitialize    0x0802460d    0x7c  Code  Gb  si_drv_cbus_main.o [1]
SiiDrvCbusInstanceSet   0x080245e5    0x28  Code  Gb  si_drv_cbus_main.o [1]
SiiDrvCbusPortSelectBitsGet
                        0x080246b3     0x8  Code  Gb  si_drv_cbus.o [1]
SiiDrvCbusWriteLocalScratchpad
                        0x0802468d    0x26  Code  Gb  si_drv_cbus.o [1]
SiiDrvCpiAddLogicalAddr
                        0x08013b83    0x44  Code  Gb  si_drv_cpi.o [1]
SiiDrvCpiDisable        0x08013a85    0x22  Code  Gb  si_drv_cpi.o [1]
SiiDrvCpiEnable         0x08013a1b    0x6a  Code  Gb  si_drv_cpi.o [1]
SiiDrvCpiFrameCount     0x08013df5     0xe  Code  Gb  si_drv_cpi.o [1]
SiiDrvCpiGetLastResult  0x08013b79     0xa  Code  Gb  si_drv_cpi.o [1]
SiiDrvCpiHwStatusGet    0x08013e03    0x7a  Code  Gb  si_drv_cpi.o [1]
SiiDrvCpiInitialize     0x080139fd    0x1e  Code  Gb  si_drv_cpi.o [1]
SiiDrvCpiInstanceSet    0x08013b45    0x34  Code  Gb  si_drv_cpi.o [1]
SiiDrvCpiRead           0x08013d91    0x64  Code  Gb  si_drv_cpi.o [1]
SiiDrvCpiResume         0x08013b21    0x1c  Code  Gb  si_drv_cpi.o [1]
SiiDrvCpiSendPing       0x08013d71    0x20  Code  Gb  si_drv_cpi.o [1]
SiiDrvCpiServiceWriteQueue
                        0x08013c15    0xe6  Code  Gb  si_drv_cpi.o [1]
SiiDrvCpiSetLogicalAddr
                        0x08013bc7    0x4e  Code  Gb  si_drv_cpi.o [1]
SiiDrvCpiStandby        0x08013abb    0x66  Code  Gb  si_drv_cpi.o [1]
SiiDrvCpiStatus         0x08013aa7    0x14  Code  Gb  si_drv_cpi.o [1]
SiiDrvCpiWrite          0x08013cfb    0x76  Code  Gb  si_drv_cpi.o [1]
SiiDrvDeviceIdGet       0x08020f61    0x16  Code  Gb  si_drv_sii953x.o [1]
SiiDrvDeviceInfo        0x08021189    0x7a  Code  Gb  si_drv_sii953x.o [1]
SiiDrvDeviceInitialize  0x08020f7d    0xd6  Code  Gb  si_drv_sii953x.o [1]
SiiDrvDeviceManageInterrupts
                        0x08021203   0x154  Code  Gb  si_drv_sii953x.o [1]
SiiDrvDeviceMpResDetectionEnable
                        0x0802117f     0xa  Code  Gb  si_drv_sii953x.o [1]
SiiDrvDeviceNonVolatileInitialize
                        0x08020de1   0x164  Code  Gb  si_drv_sii953x.o [1]
SiiDrvDevicePowerUpBoot
                        0x08021113    0x62  Code  Gb  si_drv_sii953x.o [1]
SiiDrvDeviceRelease     0x080210df    0x1c  Code  Gb  si_drv_sii953x.o [1]
SiiDrvDeviceResume      0x080210cf    0x10  Code  Gb  si_drv_sii953x.o [1]
SiiDrvDeviceRevGet      0x08020f77     0x6  Code  Gb  si_drv_sii953x.o [1]
SiiDrvDeviceSpResDetectionEnable
                        0x08021175     0xa  Code  Gb  si_drv_sii953x.o [1]
SiiDrvDeviceStandby     0x08021061    0x64  Code  Gb  si_drv_sii953x.o [1]
SiiDrvDeviceStart       0x08021105     0xe  Code  Gb  si_drv_sii953x.o [1]
SiiDrvDeviceStatus      0x08021053     0xe  Code  Gb  si_drv_sii953x.o [1]
SiiDrvEdidRxIsBootComplete
                        0x0801cf1d    0x4e  Code  Gb  si_drv_nvram_sram.o [1]
SiiDrvExtTpgEnable      0x0801b247    0x44  Code  Gb  si_drv_tpg.o [1]
SiiDrvExtTpgPatternSet  0x0801b223     0xe  Code  Gb  si_drv_tpg.o [1]
SiiDrvGetCurrentShaReq  0x0801eabb     0xc  Code  Gb  si_drv_repeater_sha.o [1]
SiiDrvGpioInitialize    0x08023cb9     0xc  Code  Gb  si_drv_gpio.o [1]
SiiDrvGpioIntEnable     0x08023edd    0x38  Code  Gb  si_drv_gpio.o [1]
SiiDrvGpioPinConfigure  0x08023d8d   0x13c  Code  Gb  si_drv_gpio.o [1]
SiiDrvGpioPinIntClear   0x08023f79    0x4e  Code  Gb  si_drv_gpio.o [1]
SiiDrvGpioPinIntStatus  0x08023f15    0x64  Code  Gb  si_drv_gpio.o [1]
SiiDrvGpioPinType       0x08023cc5    0xc0  Code  Gb  si_drv_gpio.o [1]
SiiDrvHwAutoShaDisable  0x0801ec73     0xa  Code  Gb  si_drv_repeater_sha.o [1]
SiiDrvIpvActiveWindowsGet
                        0x08024385     0x8  Code  Gb  si_drv_ipv.o [1]
SiiDrvIpvAnimationConfig
                        0x080241c9    0x34  Code  Gb  si_drv_ipv.o [1]
SiiDrvIpvAnimationEnable
                        0x08024195    0x18  Code  Gb  si_drv_ipv.o [1]
SiiDrvIpvAnimationIsComplete
                        0x080241ad    0x1c  Code  Gb  si_drv_ipv.o [1]
SiiDrvIpvBorderEnablesSet
                        0x08024175    0x20  Code  Gb  si_drv_ipv.o [1]
SiiDrvIpvBoundaryColorTableSet
                        0x0802427d    0x30  Code  Gb  si_drv_ipv.o [1]
SiiDrvIpvDownsamplerReset
                        0x08024155     0xc  Code  Gb  si_drv_ipv.o [1]
SiiDrvIpvEnable         0x080240d5    0x80  Code  Gb  si_drv_ipv.o [1]
SiiDrvIpvEnableMaskSet  0x08024161    0x14  Code  Gb  si_drv_ipv.o [1]
SiiDrvIpvGetLastResult  0x08024041     0x8  Code  Gb  si_drv_ipv.o [1]
SiiDrvIpvHandleInterrupts
                        0x08024331    0x44  Code  Gb  si_drv_ipv.o [1]
SiiDrvIpvInitialize     0x08023fe9    0x38  Code  Gb  si_drv_ipv.o [1]
SiiDrvIpvModeSet        0x08024049    0x84  Code  Gb  si_drv_ipv.o [1]
SiiDrvIpvPIPSourceSet   0x080240cd     0x8  Code  Gb  si_drv_ipv.o [1]
SiiDrvIpvProcessInterrupts
                        0x08024375     0xa  Code  Gb  si_drv_ipv.o [1]
SiiDrvIpvSizeSet        0x080242e7    0x42  Code  Gb  si_drv_ipv.o [1]
SiiDrvIpvStandby        0x08024021    0x16  Code  Gb  si_drv_ipv.o [1]
SiiDrvIpvWindowAlphaSet
                        0x08024247    0x30  Code  Gb  si_drv_ipv.o [1]
SiiDrvIpvWindowAlphaTableSet
                        0x080242ad    0x3a  Code  Gb  si_drv_ipv.o [1]
SiiDrvIpvWindowCoordSet
                        0x080241fd    0x4a  Code  Gb  si_drv_ipv.o [1]
SiiDrvNvramCopyToSram   0x0801d00b    0x5c  Code  Gb  si_drv_nvram_sram.o [1]
SiiDrvNvramEdidBlockWrite
                        0x0801b455    0xb4  Code  Gb  si_drv_edid_rx.o [1]
SiiDrvNvramEdidModeSet  0x0801b435    0x20  Code  Gb  si_drv_edid_rx.o [1]
SiiDrvNvramInitialize   0x0801d127    0x14  Code  Gb  si_drv_nvram_sram.o [1]
SiiDrvNvramNonVolatileRead
                        0x0801d0a3    0x4a  Code  Gb  si_drv_nvram_sram.o [1]
SiiDrvNvramNonVolatileWrite
                        0x0801d0ed    0x30  Code  Gb  si_drv_nvram_sram.o [1]
SiiDrvNvramProgram      0x0801d067    0x3c  Code  Gb  si_drv_nvram_sram.o [1]
SiiDrvNvramSramRead     0x0801cf75    0x3a  Code  Gb  si_drv_nvram_sram.o [1]
SiiDrvNvramSramWrite    0x0801cfaf    0x3a  Code  Gb  si_drv_nvram_sram.o [1]
SiiDrvRepeaterActiveInputSet
                        0x0801bfcf    0x3c  Code  Gb  si_drv_repeater.o [1]
SiiDrvRepeaterAnyInputDecryptionChanged
                        0x0801bf07    0x18  Code  Gb  si_drv_repeater.o [1]
SiiDrvRepeaterEnable    0x0801be67    0x6c  Code  Gb  si_drv_repeater.o [1]
SiiDrvRepeaterFillUsKsvInfo
                        0x0801ebc9    0x74  Code  Gb  si_drv_repeater_sha.o [1]
SiiDrvRepeaterGetInterruptsOn
                        0x0801c043     0xa  Code  Gb  si_drv_repeater.o [1]
SiiDrvRepeaterInit      0x0801bcdd    0x18  Code  Gb  si_drv_repeater.o [1]
SiiDrvRepeaterInstanceSet
                        0x0801bd11     0x8  Code  Gb  si_drv_repeater.o [1]
SiiDrvRepeaterInterruptsSet
                        0x0801c025     0xa  Code  Gb  si_drv_repeater.o [1]
SiiDrvRepeaterIsRxHotPlugAsserted
                        0x0801bda1    0x28  Code  Gb  si_drv_repeater.o [1]
SiiDrvRepeaterIsUsMuteClr
                        0x0801bfb1    0x1e  Code  Gb  si_drv_repeater.o [1]
SiiDrvRepeaterKsvPointTo
                        0x0801ec41    0x28  Code  Gb  si_drv_repeater_sha.o [1]
SiiDrvRepeaterMainPortAuthChanged
                        0x0801bed3    0x34  Code  Gb  si_drv_repeater.o [1]
SiiDrvRepeaterMainPortAuthed
                        0x0801bd59    0x12  Code  Gb  si_drv_repeater.o [1]
SiiDrvRepeaterMainPortAvMuteChanged
                        0x0801bf2b    0x86  Code  Gb  si_drv_repeater.o [1]
SiiDrvRepeaterNewPortAuthed
                        0x0801c013    0x12  Code  Gb  si_drv_repeater.o [1]
SiiDrvRepeaterResChngStatusGet
                        0x0801c039     0xa  Code  Gb  si_drv_repeater.o [1]
SiiDrvRepeaterResChngStatusSet
                        0x0801c02f     0xa  Code  Gb  si_drv_repeater.o [1]
SiiDrvRepeaterRxHdcpReset
                        0x0801bd93     0xe  Code  Gb  si_drv_repeater.o [1]
SiiDrvRepeaterRxSyncIntr
                        0x0801bd2b    0x2e  Code  Gb  si_drv_repeater.o [1]
SiiDrvRepeaterRxSyncIsOn
                        0x0801bd19    0x12  Code  Gb  si_drv_repeater.o [1]
SiiDrvRepeaterSetBcapsFifoReady
                        0x0801be21    0x46  Code  Gb  si_drv_repeater.o [1]
SiiDrvRepeaterSetBcapsRepeaterBits
                        0x0801bdd3    0x4e  Code  Gb  si_drv_repeater.o [1]
SiiDrvRepeaterSetMode   0x0801bcf5    0x1c  Code  Gb  si_drv_repeater.o [1]
SiiDrvRepeaterSetUsBstatus
                        0x0801bdc9     0xa  Code  Gb  si_drv_repeater.o [1]
SiiDrvRepeaterSwitchRxHotPlug
                        0x0801bd6b    0x28  Code  Gb  si_drv_repeater.o [1]
SiiDrvRxAudioCheckFsAndFix
                        0x0801a767    0xfa  Code  Gb  si_drv_audio.o [1]
SiiDrvRxAudioChstGet    0x0801a9ad    0x40  Code  Gb  si_drv_audio.o [1]
SiiDrvRxAudioClearIntStatus
                        0x0801a567     0xc  Code  Gb  si_drv_audio.o [1]
SiiDrvRxAudioEnableAAC  0x0801a9ed     0x4  Code  Gb  si_drv_audio.o [1]
SiiDrvRxAudioFifoRedirSet
                        0x0801a471    0x12  Code  Gb  si_drv_audio.o [1]
SiiDrvRxAudioGetIntStatus
                        0x0801a55b     0xc  Code  Gb  si_drv_audio.o [1]
SiiDrvRxAudioGetMclk    0x0801a483    0x24  Code  Gb  si_drv_audio.o [1]
SiiDrvRxAudioGetNewAcpInt
                        0x0801a87f    0x3e  Code  Gb  si_drv_audio.o [1]
SiiDrvRxAudioGetNoAcpInt
                        0x0801a905    0x24  Code  Gb  si_drv_audio.o [1]
SiiDrvRxAudioHdmiModeGet
                        0x0801a503     0xe  Code  Gb  si_drv_audio.o [1]
SiiDrvRxAudioInit       0x0801a573    0xc6  Code  Gb  si_drv_audio.o [1]
SiiDrvRxAudioInitMclk   0x0801aacb    0x1c  Code  Gb  si_drv_audio.o [1]
SiiDrvRxAudioInstanceSet
                        0x0801a73d    0x2a  Code  Gb  si_drv_audio.o [1]
SiiDrvRxAudioIntMaskEnable
                        0x0801a67f    0x52  Code  Gb  si_drv_audio.o [1]
SiiDrvRxAudioInternalMute
                        0x0801a861     0xe  Code  Gb  si_drv_audio.o [1]
SiiDrvRxAudioInterruptClearAssert
                        0x0801a6f1     0x6  Code  Gb  si_drv_audio.o [1]
SiiDrvRxAudioIsInterruptAssert
                        0x0801a6e9     0x8  Code  Gb  si_drv_audio.o [1]
SiiDrvRxAudioLayoutGet  0x0801a519    0x10  Code  Gb  si_drv_audio.o [1]
SiiDrvRxAudioMixGcpPassThroughConfig
                        0x0801a45f    0x10  Code  Gb  si_drv_audio_mix.o [1]
SiiDrvRxAudioMixInstanceSet
                        0x0801a417     0x2  Code  Gb  si_drv_audio_mix.o [1]
SiiDrvRxAudioMixPassThroughConfig
                        0x0801a419    0x46  Code  Gb  si_drv_audio_mix.o [1]
SiiDrvRxAudioModeGet    0x0801a4e9    0x1a  Code  Gb  si_drv_audio.o [1]
SiiDrvRxAudioNoAcpPacketcheckConfirm
                        0x0801a993    0x16  Code  Gb  si_drv_audio.o [1]
SiiDrvRxAudioNoAcpPacketcheckStart
                        0x0801a991     0x2  Code  Gb  si_drv_audio.o [1]
SiiDrvRxAudioOnNewAcp   0x0801a929    0x68  Code  Gb  si_drv_audio.o [1]
SiiDrvRxAudioOnNoAcp    0x0801a8f5    0x10  Code  Gb  si_drv_audio.o [1]
SiiDrvRxAudioPllConfig  0x0801a701    0x3c  Code  Gb  si_drv_audio.o [1]
SiiDrvRxAudioProcessInterrupts
                        0x0801a6f7     0x4  Code  Gb  si_drv_audio.o [1]
SiiDrvRxAudioReset      0x0801a529    0x20  Code  Gb  si_drv_audio.o [1]
SiiDrvRxAudioSampleRateGet
                        0x0801a4a7    0x42  Code  Gb  si_drv_audio.o [1]
SiiDrvRxAudioSetMclk    0x0801a9fb    0xc6  Code  Gb  si_drv_audio.o [1]
SiiDrvRxAudioSoftMute   0x0801a549    0x12  Code  Gb  si_drv_audio.o [1]
SiiDrvRxAudioStandby    0x0801a639    0x46  Code  Gb  si_drv_audio.o [1]
SiiDrvRxAudioUnmuteReady
                        0x0801a86f    0x10  Code  Gb  si_drv_audio.o [1]
SiiDrvRxEdidDdcControl  0x08020b9f    0x1c  Code  Gb  si_drv_msw_hpd.o [1]
SiiDrvRxHdcpDdcControl  0x08020bbb    0x1a  Code  Gb  si_drv_msw_hpd.o [1]
SiiDrvRxHpdControl      0x08020c4f    0x32  Code  Gb  si_drv_msw_hpd.o [1]
SiiDrvRxHpeStateSet     0x08020d61    0x46  Code  Gb  si_drv_msw_hpd.o [1]
SiiDrvRxPipeGet         0x08020af9    0x3c  Code  Gb  si_drv_msw_hpd.o [1]
SiiDrvRxPipeHpeTrigger  0x08020b69    0x36  Code  Gb  si_drv_msw_hpd.o [1]
SiiDrvRxPipePortGet     0x08020b35    0x34  Code  Gb  si_drv_msw_hpd.o [1]
SiiDrvRxSpdifOutEnable  0x0801a6d1    0x18  Code  Gb  si_drv_audio.o [1]
SiiDrvRxTermControl     0x08020bd5    0x7a  Code  Gb  si_drv_msw_hpd.o [1]
SiiDrvSetShaLength      0x0801eb81    0x18  Code  Gb  si_drv_repeater_sha.o [1]
SiiDrvShaAdjustKsvStartAddr
                        0x0801eb99    0x30  Code  Gb  si_drv_repeater_sha.o [1]
SiiDrvShaInUse          0x0801eacd    0x28  Code  Gb  si_drv_repeater_sha.o [1]
SiiDrvShaInit           0x0801eaad     0xe  Code  Gb  si_drv_repeater_sha.o [1]
SiiDrvShaRequestStart   0x0801eaf5    0x74  Code  Gb  si_drv_repeater_sha.o [1]
SiiDrvShaRequestStop    0x0801eb69    0x18  Code  Gb  si_drv_repeater_sha.o [1]
SiiDrvShaSetSwitchMode  0x0801eac7     0x6  Code  Gb  si_drv_repeater_sha.o [1]
SiiDrvSwitchAudioSourceSelect
                        0x0801d79d    0x6e  Code  Gb  si_drv_msw.o [1]
SiiDrvSwitchAudioZoneSourceSet
                        0x0801d767    0x28  Code  Gb  si_drv_msw.o [1]
SiiDrvSwitchConfigureMatrixSwitch
                        0x0801d67b    0x7e  Code  Gb  si_drv_msw.o [1]
SiiDrvSwitchIfInterruptStatusGet
                        0x0801d5c1    0x44  Code  Gb  si_drv_msw.o [1]
SiiDrvSwitchInfoFrameGet
                        0x0801d3af    0x86  Code  Gb  si_drv_msw_info.o [1]
SiiDrvSwitchInfoFrameValidGet
                        0x0801d435    0x42  Code  Gb  si_drv_msw_info.o [1]
SiiDrvSwitchInitialize  0x0801d4a1    0x9e  Code  Gb  si_drv_msw.o [1]
SiiDrvSwitchInstanceSet
                        0x0801d485    0x1c  Code  Gb  si_drv_msw.o [1]
SiiDrvSwitchPortInfoGet
                        0x0801d141   0x1c6  Code  Gb  si_drv_msw_info.o [1]
SiiDrvSwitchPortsProcessTermCtrl
                        0x0801d80b    0x2a  Code  Gb  si_drv_msw.o [1]
SiiDrvSwitchProcessInterrupts
                        0x0801d85f    0xba  Code  Gb  si_drv_msw.o [1]
SiiDrvSwitchSelectedPortInfo
                        0x0801d307    0x30  Code  Gb  si_drv_msw_info.o [1]
SiiDrvSwitchSelectedPorttype
                        0x0801d835    0x24  Code  Gb  si_drv_msw.o [1]
SiiDrvSwitchSourceGet   0x0801d78f     0xe  Code  Gb  si_drv_msw.o [1]
SiiDrvSwitchSourceSelect
                        0x0801d747    0x20  Code  Gb  si_drv_msw.o [1]
SiiDrvSwitchStandby     0x0801d54b    0x44  Code  Gb  si_drv_msw.o [1]
SiiDrvSwitchStateGet    0x0801d605    0x56  Code  Gb  si_drv_msw.o [1]
SiiDrvSwitchStatus      0x0801d599    0x28  Code  Gb  si_drv_msw.o [1]
SiiDrvSwitchTmdsClockGet
                        0x0801d919    0x48  Code  Gb  si_drv_msw.o [1]
SiiDrvSwitchZoneConfigGet
                        0x0801d6f9     0xc  Code  Gb  si_drv_msw.o [1]
SiiDrvSwitchZoneConfigSet
                        0x0801d705    0x42  Code  Gb  si_drv_msw.o [1]
SiiDrvSwitchZoneEnableSet
                        0x0801d66d     0xe  Code  Gb  si_drv_msw.o [1]
SiiDrvSwitchZoneTrackingGet
                        0x0801d663     0xa  Code  Gb  si_drv_msw.o [1]
SiiDrvSwitchZoneTrackingSet
                        0x0801d65b     0x8  Code  Gb  si_drv_msw.o [1]
SiiDrvTpgEnable         0x0801b231    0x16  Code  Gb  si_drv_tpg.o [1]
SiiDrvTpgVideoFormatSet
                        0x0801b1bd    0x66  Code  Gb  si_drv_tpg.o [1]
SiiDrvTpiAccessEnable   0x0801e141    0x2e  Code  Gb  si_drv_tpi_access.o [1]
SiiDrvTpiAccessInit     0x0801e12b    0x16  Code  Gb  si_drv_tpi_access.o [1]
SiiDrvTpiAudioDisable   0x0801a14f     0x4  Code  Gb  si_drv_tpi_system.o [1]
SiiDrvTpiAudioI2sConfigSet
                        0x0801a065    0x6a  Code  Gb  si_drv_tpi_system.o [1]
SiiDrvTpiAudioI2sPinsToFifoAssign
                        0x0801a185    0x62  Code  Gb  si_drv_tpi_system.o [1]
SiiDrvTpiAudioInEnable  0x08019bc1     0xa  Code  Gb  si_drv_tpi_system.o [1]
SiiDrvTpiAudioInterfaceSet
                        0x0801a0ed    0x62  Code  Gb  si_drv_tpi_system.o [1]
SiiDrvTpiAudioMuteSet   0x0801a153    0x1a  Code  Gb  si_drv_tpi_system.o [1]
SiiDrvTpiAudioRxSource  0x0801a1e7    0x32  Code  Gb  si_drv_tpi_system.o [1]
SiiDrvTpiAudioSampleConfigSet
                        0x0801a0cf    0x1a  Code  Gb  si_drv_tpi_system.o [1]
SiiDrvTpiAudioSamplePacketSourceSet
                        0x08019ea1     0xc  Code  Gb  si_drv_tpi_system.o [1]
SiiDrvTpiAudioStatusChannelSet
                        0x0801a179     0xc  Code  Gb  si_drv_tpi_system.o [1]
SiiDrvTpiAvMuteSendingEnable
                        0x0801a259     0xc  Code  Gb  si_drv_tpi_system.o [1]
SiiDrvTpiAvMuteSourceSet
                        0x08019ebf     0xc  Code  Gb  si_drv_tpi_system.o [1]
SiiDrvTpiAviFrameStart  0x0801a223    0x20  Code  Gb  si_drv_tpi_system.o [1]
SiiDrvTpiAviFrameUpdate
                        0x0801a243     0xe  Code  Gb  si_drv_tpi_system.o [1]
SiiDrvTpiBStatusGet     0x0801a3f9     0xc  Code  Gb  si_drv_tpi_system.o [1]
SiiDrvTpiBcapsGet       0x0801a405     0x8  Code  Gb  si_drv_tpi_system.o [1]
SiiDrvTpiBksvGet        0x0801a3a7     0xc  Code  Gb  si_drv_tpi_system.o [1]
SiiDrvTpiCtsPacketSourceSet
                        0x08019ead     0xa  Code  Gb  si_drv_tpi_system.o [1]
SiiDrvTpiDdcInit        0x080175c1    0x10  Code  Gb  si_drv_tpi_ddc_access.o [1]
SiiDrvTpiDdcMasterReset
                        0x080175d1    0x14  Code  Gb  si_drv_tpi_ddc_access.o [1]
SiiDrvTpiDdcReadBlock   0x080175e5   0x10a  Code  Gb  si_drv_tpi_ddc_access.o [1]
SiiDrvTpiDdcWriteBlock  0x080176f5    0x5e  Code  Gb  si_drv_tpi_ddc_access.o [1]
SiiDrvTpiDeGenerationEnable
                        0x08019f6f    0x6e  Code  Gb  si_drv_tpi_system.o [1]
SiiDrvTpiDeepColorGcpEnable
                        0x08019f15    0x12  Code  Gb  si_drv_tpi_system.o [1]
SiiDrvTpiDeviceIdGet    0x08019da7    0x1a  Code  Gb  si_drv_tpi_system.o [1]
SiiDrvTpiEmbSyncExtractionEnable
                        0x08019fdd    0x74  Code  Gb  si_drv_tpi_system.o [1]
SiiDrvTpiGetHpdState    0x08019e6b     0xc  Code  Gb  si_drv_tpi_system.o [1]
SiiDrvTpiHdcpDynamicAuthenticationEnable
                        0x0801a37b     0xc  Code  Gb  si_drv_tpi_system.o [1]
SiiDrvTpiHdcpEncriptionEnable
                        0x0801a387     0xa  Code  Gb  si_drv_tpi_system.o [1]
SiiDrvTpiHdcpIsAuthenticationGood
                        0x0801a35f    0x1c  Code  Gb  si_drv_tpi_system.o [1]
SiiDrvTpiHdcpIsPart2Done
                        0x0801a349    0x16  Code  Gb  si_drv_tpi_system.o [1]
SiiDrvTpiHdcpProtectionEnable
                        0x0801a335     0xc  Code  Gb  si_drv_tpi_system.o [1]
SiiDrvTpiHdcpR0CalcConfigSet
                        0x08019c6f    0x12  Code  Gb  si_drv_tpi_system.o [1]
SiiDrvTpiHdcpRi128Comp  0x0801a40d     0xa  Code  Gb  si_drv_tpi_system.o [1]
SiiDrvTpiHdcpStatusGet  0x0801a341     0x8  Code  Gb  si_drv_tpi_system.o [1]
SiiDrvTpiHdmiOutputModeSet
                        0x08019d95     0xa  Code  Gb  si_drv_tpi_system.o [1]
SiiDrvTpiIndirectBlockRead
                        0x0801e1cb    0x38  Code  Gb  si_drv_tpi_access.o [1]
SiiDrvTpiIndirectBlockWrite
                        0x0801e191    0x3a  Code  Gb  si_drv_tpi_access.o [1]
SiiDrvTpiIndirectRead   0x0801e181    0x10  Code  Gb  si_drv_tpi_access.o [1]
SiiDrvTpiIndirectWrite  0x0801e175     0xc  Code  Gb  si_drv_tpi_access.o [1]
SiiDrvTpiInfoFrameEnable
                        0x0801a265    0x2a  Code  Gb  si_drv_tpi_system.o [1]
SiiDrvTpiInfoFrameIsEnabled
                        0x0801a28f    0x1a  Code  Gb  si_drv_tpi_system.o [1]
SiiDrvTpiInfoFrameLoad  0x0801a2a9    0x8c  Code  Gb  si_drv_tpi_system.o [1]
SiiDrvTpiInit           0x08019c81    0x40  Code  Gb  si_drv_tpi_system.o [1]
SiiDrvTpiInterruptsEnable
                        0x08019cef    0x20  Code  Gb  si_drv_tpi_system.o [1]
SiiDrvTpiIsDownstreamHdcpAvailable
                        0x0801a399     0xe  Code  Gb  si_drv_tpi_system.o [1]
SiiDrvTpiIsPoweredUp    0x08019d63    0x16  Code  Gb  si_drv_tpi_system.o [1]
SiiDrvTpiIsWakeUpRequired
                        0x08019e8f     0x8  Code  Gb  si_drv_tpi_system.o [1]
SiiDrvTpiIsZeroKsvListReady
                        0x0801a3d5    0x24  Code  Gb  si_drv_tpi_system.o [1]
SiiDrvTpiKsvListGet     0x0801a3c9     0xc  Code  Gb  si_drv_tpi_system.o [1]
SiiDrvTpiKsvListPortionSizeGet
                        0x0801a3b3    0x16  Code  Gb  si_drv_tpi_system.o [1]
SiiDrvTpiPendingInterruptsClear
                        0x08019e85     0xa  Code  Gb  si_drv_tpi_system.o [1]
SiiDrvTpiPendingInterruptsGet
                        0x08019e7d     0x8  Code  Gb  si_drv_tpi_system.o [1]
SiiDrvTpiPlugStatusGet  0x08019ecb     0x8  Code  Gb  si_drv_tpi_system.o [1]
SiiDrvTpiPowerUp        0x08019d0f     0x4  Code  Gb  si_drv_tpi_system.o [1]
SiiDrvTpiProcessInterrupts
                        0x08019dd1    0x94  Code  Gb  si_drv_tpi_system.o [1]
SiiDrvTpiRevisionGet    0x08019dc1    0x10  Code  Gb  si_drv_tpi_system.o [1]
SiiDrvTpiSourceTerminationEnable
                        0x08019bcb    0x1e  Code  Gb  si_drv_tpi_system.o [1]
SiiDrvTpiStandby        0x08019d13    0x22  Code  Gb  si_drv_tpi_system.o [1]
SiiDrvTpiSwReset        0x08019cc1    0x2e  Code  Gb  si_drv_tpi_system.o [1]
SiiDrvTpiSyncRegenConfigurationSet
                        0x08019f27    0x48  Code  Gb  si_drv_tpi_system.o [1]
SiiDrvTpiTmdsOutputEnable
                        0x08019d79    0x1c  Code  Gb  si_drv_tpi_system.o [1]
SiiDrvTpiVideoModeDataSet
                        0x08019f0d     0x2  Code  Gb  si_drv_tpi_system.o [1]
SiiDrvTpiVideoSourceSelect
                        0x08019ed3    0x3a  Code  Gb  si_drv_tpi_system.o [1]
SiiDrvTpiWakeUpRequestClear
                        0x08019e97     0xa  Code  Gb  si_drv_tpi_system.o [1]
SiiEdidTxCecPhysAddrGet
                        0x0801699f    0x24  Code  Gb  si_edid_tx_component.o [1]
SiiEdidTxConfigure      0x08016683   0x10a  Code  Gb  si_edid_tx_component.o [1]
SiiEdidTxDismissEdid    0x08016983    0x1c  Code  Gb  si_edid_tx_component.o [1]
SiiEdidTxDoesDsSupport  0x08016515     0xe  Code  Gb  si_edid_tx_analyzer.o [1]
SiiEdidTxDsDeviceRemedyMaskGet
                        0x08016523     0xc  Code  Gb  si_edid_tx_analyzer.o [1]
SiiEdidTxGetLastResult  0x0801678d     0x8  Code  Gb  si_edid_tx_component.o [1]
SiiEdidTxInitialize     0x08016795    0x70  Code  Gb  si_edid_tx_component.o [1]
SiiEdidTxInputSet       0x08016657    0x2c  Code  Gb  si_edid_tx_component.o [1]
SiiEdidTxInstanceGet    0x0801663d    0x18  Code  Gb  si_edid_tx_component.o [1]
SiiEdidTxInstanceSet    0x08016655     0x2  Code  Gb  si_edid_tx_component.o [1]
SiiEdidTxOutVideoModeRankGet
                        0x0801652f    0x5c  Code  Gb  si_edid_tx_analyzer.o [1]
SiiEdidTxProcessEdid    0x08016805   0x17e  Code  Gb  si_edid_tx_component.o [1]
SiiIpvAlphaLoad         0x08024dd9    0x36  Code  Gb  si_ipv_component.o [1]
SiiIpvAlphaStep         0x08024e0f    0x4a  Code  Gb  si_ipv_component.o [1]
SiiIpvBorderColorsLoad  0x08024db5    0x24  Code  Gb  si_ipv_component.o [1]
SiiIpvCbVideoInfoGet    0x08023829    0x14  Code  Gb  sk_app_ipv.o [1]
SiiIpvEnable            0x080248af    0x4c  Code  Gb  si_ipv_component.o [1]
SiiIpvHandler           0x08024f13    0xf0  Code  Gb  si_ipv_component.o [1]
SiiIpvHighlightEnable   0x08024da1    0x14  Code  Gb  si_ipv_component.o [1]
SiiIpvHighlightSet      0x08024c49   0x158  Code  Gb  si_ipv_component.o [1]
SiiIpvHighlightWindow   0x0802490d    0x46  Code  Gb  si_ipv_component.o [1]
SiiIpvInitialize        0x08024855    0x46  Code  Gb  si_ipv_component.o [1]
SiiIpvModeSet           0x0802489b    0x14  Code  Gb  si_ipv_component.o [1]
SiiIpvPipModeEnable     0x08024ef5    0x1e  Code  Gb  si_ipv_component.o [1]
SiiIpvRefresh           0x080248fb    0x12  Code  Gb  si_ipv_component.o [1]
SiiIpvThemeSet          0x08024e59    0x88  Code  Gb  si_ipv_component.o [1]
SiiMhlCbHpdSetState     0x08022745    0x26  Code  Gb  si_cbus_component.o [1]
SiiMhlRxCbusConnected   0x08022647     0xa  Code  Gb  si_cbus_component.o [1]
SiiMhlRxGetMscMsgCmd    0x08022657    0x14  Code  Gb  si_cbus_component.o [1]
SiiMhlRxHpdSet          0x08022677    0x44  Code  Gb  si_cbus_component.o [1]
SiiMhlRxInitialize      0x08022723    0x22  Code  Gb  si_cbus_component.o [1]
SiiMhlRxPathEnable      0x080226ef    0x34  Code  Gb  si_cbus_component.o [1]
SiiMhlRxSendRAPCmd      0x08022651     0x6  Code  Gb  si_cbus_component.o [1]
SiiMhlRxSendRCPCmd      0x08022861     0x8  Code  Gb  si_cbus_rcp_parse.o [1]
SiiMhlRxSendRapk        0x08022671     0x6  Code  Gb  si_cbus_component.o [1]
SiiMhlRxSendRcpe        0x0802266b     0x6  Code  Gb  si_cbus_component.o [1]
SiiMhlRxWritePeerScratchpad
                        0x080226bb    0x34  Code  Gb  si_cbus_component.o [1]
SiiOsTimerExpired       0x0801437f    0x24  Code  Gb  si_osal_timer.o [1]
SiiOsTimerSet           0x08014369    0x16  Code  Gb  si_osal_timer.o [1]
SiiOsTimerTotalElapsed  0x08014365     0x4  Code  Gb  si_osal_timer.o [1]
SiiOsTimerWait          0x080143a3     0x4  Code  Gb  si_osal_timer.o [1]
SiiPlatformEepromReadBlock
                        0x08025047    0x12  Code  Gb  si_eeprom.o [1]
SiiPlatformEepromReadByte
                        0x08025059     0x4  Code  Gb  si_eeprom.o [1]
SiiPlatformGpioAudioInOut
                        0x080243c1     0xa  Code  Gb  si_gpio.o [1]
SiiPlatformGpioRpwr     0x080243f9    0x28  Code  Gb  si_gpio.o [1]
SiiPlatformGpioVbusCtrl
                        0x080243d1    0x28  Code  Gb  si_gpio.o [1]
SiiPlatformI2cCbSlaveReadByte
                        0x08023859    0x24  Code  Gb  si_rtpi_component.o [1]
SiiPlatformI2cReadBlock
                        0x080255eb     0x6  Code  Gb  si_i2c.o [1]
SiiPlatformI2cReadBlock16
                        0x080255df     0x2  Code  Gb  si_i2c.o [1]
SiiPlatformI2cReadByte  0x080255f1     0x6  Code  Gb  si_i2c.o [1]
SiiPlatformI2cWriteBlock
                        0x080255d1     0x6  Code  Gb  si_i2c.o [1]
SiiPlatformI2cWriteByte
                        0x080255d7     0x8  Code  Gb  si_i2c.o [1]
SiiPlatformInitialize   0x08023c01     0xa  Code  Gb  si_platform.o [1]
SiiPlatformInterruptClear
                        0x08023c41     0x8  Code  Gb  si_platform.o [1]
SiiPlatformInterruptEnable
                        0x08023c0b     0x2  Code  Gb  si_platform.o [1]
SiiPlatformInterruptPinStateGet
                        0x08023c29    0x12  Code  Gb  si_platform.o [1]
SiiPlatformInterruptStateGet
                        0x08023c3b     0x6  Code  Gb  si_platform.o [1]
SiiPlatformReadRotary   0x08023bf5     0x4  Code  Gb  si_platform.o [1]
SiiPlatformSwitchGet    0x08023bf9     0x8  Code  Gb  si_platform.o [1]
SiiPlatformTimerElapsed
                        0x08014d1d     0xe  Code  Gb  si_timer.o [1]
SiiPlatformTimerExpired
                        0x08014d05    0x18  Code  Gb  si_timer.o [1]
SiiPlatformTimerInit    0x08014d2b    0x4a  Code  Gb  si_timer.o [1]
SiiPlatformTimerSet     0x08014cd7    0x2e  Code  Gb  si_timer.o [1]
SiiPlatformTimerSysTickIntHandler
                        0x08014c81    0x50  Code  Gb  si_timer.o [1]
SiiPlatformTimerSysTicksGet
                        0x08014cd1     0x6  Code  Gb  si_timer.o [1]
SiiPlatform_InterruptConfig_STM32
                        0x08023c49    0x66  Code  Gb  si_platform.o [1]
SiiRegBitsSet           0x08014231    0x12  Code  Gb  si_cra.o [1]
SiiRegInstanceSet       0x080140d7    0x22  Code  Gb  si_cra.o [1]
SiiRegModify            0x08014221    0x10  Code  Gb  si_cra.o [1]
SiiRegRead              0x08014129    0x20  Code  Gb  si_cra.o [1]
SiiRegReadBlock         0x080140f9    0x30  Code  Gb  si_cra.o [1]
SiiRegWrite             0x080141b9    0x68  Code  Gb  si_cra.o [1]
SiiRegWriteBlock        0x08014149    0x30  Code  Gb  si_cra.o [1]
SiiRepeaterCbTxResume   0x08018ead    0x6e  Code  Gb  sk_app_tx.o [1]
SiiRepeaterCbTxSelect   0x0801bc9d     0x4  Code  Gb  sk_app_repeater.o [1]
SiiRepeaterCbTxStandby  0x08018f1b    0x28  Code  Gb  sk_app_tx.o [1]
SiiRepeaterConInstanceSet
                        0x0801ed29     0x2  Code  Gb  si_connection_monitor.o [1]
SiiRepeaterConnectionMonitorInit
                        0x0801ed2b    0x1e  Code  Gb  si_connection_monitor.o [1]
SiiRepeaterForceShaSet  0x0801abc9    0x26  Code  Gb  si_repeater_component.o [1]
SiiRepeaterHandler      0x0801ace1    0x32  Code  Gb  si_repeater_component.o [1]
SiiRepeaterHdcpDsDdcAck
                        0x0801af35    0x5c  Code  Gb  si_repeater_component.o [1]
SiiRepeaterHdcpFinishUsPart2
                        0x0801ae6d    0xbe  Code  Gb  si_repeater_component.o [1]
SiiRepeaterHdcpInformUsDeviceAboutFailure
                        0x0801b06d    0x46  Code  Gb  si_repeater_component.o [1]
SiiRepeaterHdcpPrepareFor0KsvListProcessing
                        0x0801af91    0x60  Code  Gb  si_repeater_component.o [1]
SiiRepeaterHdcpPrepareForKsvListProcessing
                        0x0801aff1    0x7c  Code  Gb  si_repeater_component.o [1]
SiiRepeaterHdcpProcessDsBstatus
                        0x0801ad63   0x10a  Code  Gb  si_repeater_component.o [1]
SiiRepeaterHdcpSetBcapsFifoRdyBits
                        0x0801af31     0x4  Code  Gb  si_repeater_component.o [1]
SiiRepeaterHdcpUsOnlyAuthentication
                        0x0801ad13    0x50  Code  Gb  si_repeater_component.o [1]
SiiRepeaterInitialize   0x0801ac05    0x62  Code  Gb  si_repeater_component.o [1]
SiiRepeaterInstanceSet  0x0801abaf    0x1a  Code  Gb  si_repeater_component.o [1]
SiiRepeaterInterruptPending
                        0x0801b185    0x12  Code  Gb  si_repeater_component.o [1]
SiiRepeaterOnTxHdcpDone
                        0x0801b14d    0x2e  Code  Gb  si_repeater_component.o [1]
SiiRepeaterOnTxHpdChange
                        0x0801b0b3    0x9a  Code  Gb  si_repeater_component.o [1]
SiiRepeaterPipeConfigureSet
                        0x0801ac99    0x48  Code  Gb  si_repeater_component.o [1]
SiiRepeaterPipeTxConnectionSet
                        0x0801ac67    0x32  Code  Gb  si_repeater_component.o [1]
SiiRepeaterSetActiveSource
                        0x0801b17b     0xa  Code  Gb  si_repeater_component.o [1]
SiiRepeaterShaRequest   0x0801ecd1    0x4e  Code  Gb  si_repeater_sha.o [1]
SiiRepeaterSwitchModeSet
                        0x0801abef    0x16  Code  Gb  si_repeater_component.o [1]
SiiRpForceWriteByte     0x08023851     0x8  Code  Gb  si_rtpi_component.o [1]
SiiRpReadBlock          0x08023899    0x22  Code  Gb  si_rtpi_component.o [1]
SiiRpWriteBlock         0x0802387d    0x1c  Code  Gb  si_rtpi_component.o [1]
SiiRtpiCbAudioByPassSet
                        0x080225c3     0x8  Code  Gb  sk_app_audio_rx.o [1]
SiiRtpiCbDeviceInitTx   0x08018aa1     0x4  Code  Gb  sk_app_tx.o [1]
SiiRtpiCbPowerControl   0x0802352b    0x26  Code  Gb  sk_app_device.o [1]
SiiRtpiCbPowerState     0x08023551     0xc  Code  Gb  sk_app_device.o [1]
SiiRtpiCbUpdateControl  0x080230d7    0x3c  Code  Gb  sk_app_support.o [1]
SiiRtpiCbUpdateSource   0x0802311d    0x26  Code  Gb  sk_app_support.o [1]
SiiRtpiInitialize       0x080239cd    0x6e  Code  Gb  si_rtpi_component.o [1]
SiiRtpiInstanceSet      0x0802383d    0x14  Code  Gb  si_rtpi_component.o [1]
SiiRtpiLoadEepromInit   0x080239b5    0x18  Code  Gb  si_rtpi_component.o [1]
SiiRtpiOnAudioInfoFrameChange
                        0x08023951    0x34  Code  Gb  si_rtpi_component.o [1]
SiiRtpiOnAudioStatusChange
                        0x0802392f    0x22  Code  Gb  si_rtpi_component.o [1]
SiiRtpiOnAviInfoFrameChange
                        0x08023985    0x24  Code  Gb  si_rtpi_component.o [1]
SiiRtpiOnPwrStateChange
                        0x080239a9     0xc  Code  Gb  si_rtpi_component.o [1]
SiiRtpiPort             0x080238e1    0x20  Code  Gb  si_rtpi_component.o [1]
SiiRtpiPortConnect      0x08023901    0x2e  Code  Gb  si_rtpi_component.o [1]
SiiRtpiProcessRtpi      0x08023a3b   0x134  Code  Gb  si_rtpi_component.o [1]
SiiRtpiSetInt           0x080238bb    0x16  Code  Gb  si_rtpi_component.o [1]
SiiRxAudioHandler       0x08024477   0x130  Code  Gb  si_audio_component.o [1]
SiiRxAudioInit          0x08024441    0x20  Code  Gb  si_audio_component.o [1]
SiiRxAudioInstanceSet   0x08024421    0x20  Code  Gb  si_audio_component.o [1]
SiiRxAudioNoAcpCheck    0x080245a7    0x30  Code  Gb  si_audio_component.o [1]
SiiRxAudioStandby       0x08024461    0x16  Code  Gb  si_audio_component.o [1]
SiiThxAnalyzePkt        0x08024773    0xdc  Code  Gb  si_thx_component.o [1]
SiiThxInitialize        0x080246bd    0x3e  Code  Gb  si_thx_component.o [1]
SiiTimerExpired         0x080143a7     0x4  Code  Gb  si_osal_timer.o [1]
SiiTimerSet             0x080143ab     0x4  Code  Gb  si_osal_timer.o [1]
SiiTxAudioSourceConfig  0x08019ad9    0x2c  Code  Gb  si_tx_component.o [1]
SiiTxAvMute             0x08019b41     0x6  Code  Gb  si_tx_component.o [1]
SiiTxAvUnmute           0x08019b47     0x6  Code  Gb  si_tx_component.o [1]
SiiTxCbHdcpDsDdcAck     0x08018e91     0x4  Code  Gb  sk_app_tx.o [1]
SiiTxCbHdcpFinishUsPart2
                        0x08018e99     0x4  Code  Gb  sk_app_tx.o [1]
SiiTxCbHdcpInformUsDeviceAboutFailure
                        0x08018ea9     0x4  Code  Gb  sk_app_tx.o [1]
SiiTxCbHdcpPrepareFor0KsvListProcessing
                        0x08018ea5     0x4  Code  Gb  sk_app_tx.o [1]
SiiTxCbHdcpPrepareForKsvListProcessing
                        0x08018ea1     0x4  Code  Gb  sk_app_tx.o [1]
SiiTxCbHdcpProcessDsBstatus
                        0x08018e95     0x4  Code  Gb  sk_app_tx.o [1]
SiiTxCbHdcpSetUsRepeaterBcaps
                        0x08018e9d     0x4  Code  Gb  sk_app_tx.o [1]
SiiTxCbHdcpUsOnlyAuthentication
                        0x08018e8d     0x4  Code  Gb  sk_app_tx.o [1]
SiiTxEdidCbBlockWrite   0x08018f43    0x34  Code  Gb  sk_app_tx.o [1]
SiiTxGetLastResult      0x08019757    0x18  Code  Gb  si_tx_component.o [1]
SiiTxHdcpConfigure      0x08019b87     0x6  Code  Gb  si_tx_component.o [1]
SiiTxHdcpDisable        0x08019b91     0x4  Code  Gb  si_tx_component.o [1]
SiiTxHdcpEnable         0x08019b8d     0x4  Code  Gb  si_tx_component.o [1]
SiiTxInfoFrameEnable    0x08019b77    0x10  Code  Gb  si_tx_component.o [1]
SiiTxInfoFrameSet       0x08019b4d    0x2a  Code  Gb  si_tx_component.o [1]
SiiTxInitialize         0x08019697    0x6e  Code  Gb  si_tx_component.o [1]
SiiTxInputAudioModeSet  0x08019b09    0x24  Code  Gb  si_tx_component.o [1]
SiiTxInputAudioUnmute   0x08019b2d     0x6  Code  Gb  si_tx_component.o [1]
SiiTxInputVideoModeSet  0x080199ed    0xde  Code  Gb  si_tx_component.o [1]
SiiTxInstanceGet        0x08019705    0x10  Code  Gb  si_tx_component.o [1]
SiiTxOutputInterfaceSet
                        0x08019787    0x4e  Code  Gb  si_tx_component.o [1]
SiiTxPhysicalAddressGet
                        0x08019b95     0x4  Code  Gb  si_tx_component.o [1]
SiiTxRecoverAfterSourceClockInterruption
                        0x08019b33     0xe  Code  Gb  si_tx_component.o [1]
SiiTxResume             0x08019811    0x42  Code  Gb  si_tx_component.o [1]
SiiTxRevisionGet        0x0801976f    0x18  Code  Gb  si_tx_component.o [1]
SiiTxStandby            0x080197e1    0x30  Code  Gb  si_tx_component.o [1]
SiiTxStatusGet          0x08019715    0x42  Code  Gb  si_tx_component.o [1]
SiiTxTaskProcess        0x08019867   0x152  Code  Gb  si_tx_component.o [1]
SiiTxVideoSourceConfig  0x080199b9    0x34  Code  Gb  si_tx_component.o [1]
SiiVideoTableRepetitionGet
                        0x080214cd    0x4a  Code  Gb  si_video_tables.o [1]
SkAppArcRxCecMsgHandler
                        0x08020307   0x10a  Code  Lc  sk_app_arc.o [1]
SkAppArcTxCecMsgHandler
                        0x0802028f    0x78  Code  Lc  sk_app_arc.o [1]
SkAppCbusAssignCecDeviceAddress
                        0x0802015f    0xc4  Code  Gb  sk_app_cbus_cec.o [1]
SkAppCbusCecRxMsgFilter
                        0x0801ffa3   0x1bc  Code  Gb  sk_app_cbus_cec.o [1]
SkAppCbusInstanceSet    0x0802139d    0x20  Code  Gb  sk_app_cbus.o [1]
SkAppCbusIsMhlCableConnected
                        0x080213f5    0x3e  Code  Gb  sk_app_cbus.o [1]
SkAppCbusResume         0x08021483     0xa  Code  Gb  sk_app_cbus.o [1]
SkAppCbusSetLogicalAddressInstance
                        0x0801fee1    0x38  Code  Gb  sk_app_cbus_cec.o [1]
SkAppCbusStandby        0x0802148d    0x38  Code  Gb  sk_app_cbus.o [1]
SkAppCdcMsgHandler      0x08025061    0x3a  Code  Gb  sk_app_cdc.o [1]
SkAppCecConfigure       0x0801b5af    0x26  Code  Gb  sk_app_cec.o [1]
SkAppCecInstanceSet     0x0801b519    0x2c  Code  Gb  sk_app_cec.o [1]
SkAppCecResume          0x0801b56f    0x40  Code  Gb  sk_app_cec.o [1]
SkAppCecStandby         0x0801b545    0x2a  Code  Gb  sk_app_cec.o [1]
SkAppDemo               0x08023bd5    0x1e  Code  Gb  sk_app_demo.o [1]
SkAppDeviceInitArc      0x08020411    0x32  Code  Gb  sk_app_arc.o [1]
SkAppDeviceInitAudio    0x080224f5    0x36  Code  Gb  sk_app_audio_rx.o [1]
SkAppDeviceInitCbus     0x08021433    0x50  Code  Gb  sk_app_cbus.o [1]
SkAppDeviceInitCec      0x0801b649    0x6e  Code  Gb  sk_app_cec.o [1]
SkAppDeviceInitEdidTx   0x08018a25    0x7c  Code  Gb  sk_app_tx.o [1]
SkAppDeviceInitGpio     0x0802505d     0x4  Code  Gb  sk_app_gpio.o [1]
SkAppDeviceInitMsw      0x08022ea1    0x10  Code  Gb  sk_app_switch.o [1]
SkAppDeviceInitRepeater
                        0x0801bae5    0x22  Code  Gb  sk_app_repeater.o [1]
SkAppDeviceInitThx      0x08022965    0x1a  Code  Gb  sk_app_thx.o [1]
SkAppDeviceInitTx       0x08018aa5    0x50  Code  Gb  sk_app_tx.o [1]
SkAppDeviceInitialize   0x0802332d    0xf8  Code  Gb  sk_app_device.o [1]
SkAppDevicePower        0x0802345b    0xca  Code  Gb  sk_app_device.o [1]
SkAppDismissTxEdid      0x08018caf    0x48  Code  Gb  sk_app_tx.o [1]
SkAppExtAudioInsertConfig
                        0x080189ed    0x38  Code  Gb  sk_app_tx.o [1]
SkAppInitCdc            0x0802509b    0x7e  Code  Gb  sk_app_cdc.o [1]
SkAppInitInstanceData   0x080231ef    0xce  Code  Gb  sk_app_support.o [1]
SkAppInitialize         0x080232bd    0x30  Code  Gb  sk_app_support.o [1]
SkAppInternalVideoConfig
                        0x080189bf    0x2e  Code  Gb  sk_app_tx.o [1]
SkAppIpvCycleInstaPrevueWindows
                        0x080236dd    0x6c  Code  Gb  sk_app_ipv.o [1]
SkAppIpvEnable          0x08023749    0x26  Code  Gb  sk_app_ipv.o [1]
SkAppIpvPipModeEnable   0x0802376f    0x48  Code  Gb  sk_app_ipv.o [1]
SkAppLowPowerStandby    0x08023425    0x36  Code  Gb  sk_app_device.o [1]
SkAppProcessTxEdid      0x08018c91    0x1e  Code  Gb  sk_app_tx.o [1]
SkAppRepeaterConfigure  0x0801bb07    0x3c  Code  Gb  sk_app_repeater.o [1]
SkAppRepeaterHdcpDsDdcAck
                        0x0801bbfb    0x16  Code  Gb  sk_app_repeater.o [1]
SkAppRepeaterHdcpFinishUsPart2
                        0x0801bc27    0x16  Code  Gb  sk_app_repeater.o [1]
SkAppRepeaterHdcpInformUsDeviceAboutFailure
                        0x0801bc87    0x16  Code  Gb  sk_app_repeater.o [1]
SkAppRepeaterHdcpPrepareFor0KsvListProcessing
                        0x0801bc71    0x16  Code  Gb  sk_app_repeater.o [1]
SkAppRepeaterHdcpPrepareForKsvListProcessing
                        0x0801bc5b    0x16  Code  Gb  sk_app_repeater.o [1]
SkAppRepeaterHdcpProcessDsBstatus
                        0x0801bc11    0x16  Code  Gb  sk_app_repeater.o [1]
SkAppRepeaterHdcpSetBcapsFifoRdyBits
                        0x0801bc47    0x14  Code  Gb  sk_app_repeater.o [1]
SkAppRepeaterHdcpUsOnlyAuthentication
                        0x0801bbe5    0x16  Code  Gb  sk_app_repeater.o [1]
SkAppRepeaterSourceConfig
                        0x0801b987   0x15e  Code  Gb  sk_app_repeater.o [1]
SkAppServiceNonHdmiVideo
                        0x08022b29    0xb2  Code  Gb  sk_app_switch.o [1]
SkAppSetup              0x08023bb5    0x1e  Code  Gb  sk_app_setup.o [1]
SkAppSignon             0x0802055d    0x3c  Code  Gb  sk953x_avr_repeater.o [1]
SkAppSourceIsConnectedCbusPort
                        0x080213bd    0x38  Code  Gb  sk_app_cbus.o [1]
SkAppSwitchGetNextPort  0x080229c1    0x3c  Code  Gb  sk_app_switch.o [1]
SkAppSwitchPortUpdate   0x08022c27   0x272  Code  Gb  sk_app_switch.o [1]
SkAppTaskAudio          0x0802256d    0x56  Code  Gb  sk_app_audio_rx.o [1]
SkAppTaskCec            0x0801b5d9    0x70  Code  Gb  sk_app_cec.o [1]
SkAppTaskIpv            0x080237f3    0x22  Code  Gb  sk_app_ipv.o [1]
SkAppTaskIpvInitialize  0x080237b7    0x3c  Code  Gb  sk_app_ipv.o [1]
SkAppTaskRepeater       0x0801bb8f    0x4e  Code  Gb  sk_app_repeater.o [1]
SkAppTaskSiiDevice      0x0802355d    0x5e  Code  Gb  sk_app_device.o [1]
SkAppTaskSwitch         0x08022eb1   0x194  Code  Gb  sk_app_switch.o [1]
SkAppTaskThx            0x0802297f    0x34  Code  Gb  sk_app_thx.o [1]
SkAppTaskTx             0x08018af5   0x196  Code  Gb  sk_app_tx.o [1]
SkAppTpgEnable          0x0801892f    0x90  Code  Gb  sk_app_tx.o [1]
SkAppTv                 0x080228cd    0x8e  Code  Gb  sk_app_tv.o [1]
SkAppTxAdjustAnalogSettings
                        0x08018da9    0x42  Code  Gb  sk_app_tx.o [1]
SkAppTxAdjustVideoSettings
                        0x08018df1    0x40  Code  Gb  sk_app_tx.o [1]
SkAppTxCopyAif          0x08018cf7    0x84  Code  Gb  sk_app_tx.o [1]
SkAppTxCopyVsif         0x08018d81    0x28  Code  Gb  sk_app_tx.o [1]
SkAppTxHdcpAuthDone     0x0801bb6d    0x22  Code  Gb  sk_app_repeater.o [1]
SkAppTxHpdConnection    0x0801bb49    0x24  Code  Gb  sk_app_repeater.o [1]
SkAppTxInfoFrameUpdate  0x08018e31    0x5c  Code  Gb  sk_app_tx.o [1]
SkAppTxInstanceSet      0x08018909    0x26  Code  Gb  sk_app_tx.o [1]
SkAppUiUpdate           0x08023143    0xac  Code  Gb  sk_app_support.o [1]
StartTx                 0x080187bf    0xc6  Code  Lc  sk_app_tx.o [1]
StopTask                0x0801f4a7    0x1a  Code  Lc  si_sac_main.o [1]
StorageDeiveManager_InstrSender
                        0x0802c725    0x3c  Code  Lc  StorageDeviceManager.o [1]
StorageDeiveManager_initialize
                        0x0802c765    0x3a  Code  Lc  StorageDeviceManager.o [1]
StorageDeviceManager_read
                        0x0802c79f     0x4  Code  Lc  StorageDeviceManager.o [1]
StorageDeviceManager_write
                        0x0802c7a3     0x4  Code  Lc  StorageDeviceManager.o [1]
StorageDevice_calcCellAddress
                        0x0802af35    0x5c  Code  Lc  StorageDeviceDriver.o [1]
StorageDevice_calcPartitionAddress
                        0x0802b12d    0x2c  Code  Lc  StorageDeviceDriver.o [1]
StorageDevice_checkDiskRevision
                        0x0802af91    0xb0  Code  Lc  StorageDeviceDriver.o [1]
StorageDevice_checkPartitionChecksum
                        0x0802b0a9    0x84  Code  Lc  StorageDeviceDriver.o [1]
StorageDevice_checkPartitionReversion
                        0x0802b041    0x5e  Code  Gb  StorageDeviceDriver.o [1]
StorageDevice_initialize
                        0x0802ae99    0x1a  Code  Gb  StorageDeviceDriver.o [1]
StorageDevice_read      0x0802aeb3    0x38  Code  Gb  StorageDeviceDriver.o [1]
StorageDevice_write     0x0802aeeb    0x32  Code  Gb  StorageDeviceDriver.o [1]
SwitchInfoframeProcessInterrupts
                        0x0801d337    0x78  Code  Gb  si_drv_msw_info.o [1]
SyncSignalsRegenerationSet
                        0x0801959d    0xa4  Code  Lc  si_tx_component.o [1]
SysTick_Handler         0x0800df31    0x14  Code  Gb  port.o [1]
SystemCheck_CreateTask  0x0802cb5d    0x2e  Code  Gb  App_main.o [1]
SystemCheck_Task        0x0802cb45    0x18  Code  Gb  App_main.o [1]
SystemCoreClock         0x2000a460     0x4  Data  Gb  system_stm32f4xx.o [1]
SystemInit              0x0802c441    0xe6  Code  Gb  system_stm32f4xx.o [1]
TAMP_STAMP_IRQHandler   0x0802d1d1          Code  Wk  startup_stm32f411xe.o [1]
TAS5713_I2C_write       0x0802ca29    0x2a  Code  Gb  TAS5713_i2c.o [1]
TAS5713_Master_Vol_Mute_C
                        0x0802c971    0x2c  Code  Lc  TAS5713.o [1]
TAS5713_initialization_C
                        0x0802c9b7    0x6a  Code  Lc  TAS5713.o [1]
TAS5713_shutdown        0x0802c99d    0x1a  Code  Gb  TAS5713.o [1]
TAS5727_I2C_write       0x0802c0a5    0x2a  Code  Gb  TAS5727_i2c.o [1]
TAS5727_I2C_write_n_byte
                        0x0802c0ed    0x36  Code  Gb  TAS5727_i2c.o [1]
TAS5727_Master_Vol_Mute_LR
                        0x0802bf7d    0x3e  Code  Lc  TAS5727.o [1]
TAS5727_initialization_LR
                        0x0802bfd5    0xc0  Code  Lc  TAS5727.o [1]
TAS5727_shutdown        0x0802bfbb    0x1a  Code  Gb  TAS5727.o [1]
TI1_Config              0x0802b6e7    0x2e  Code  Lc  stm32f4xx_tim.o [1]
TI2_Config              0x0802b715    0x32  Code  Lc  stm32f4xx_tim.o [1]
TIM1_BRK_TIM9_IRQHandler
                        0x0802d209          Code  Wk  startup_stm32f411xe.o [1]
TIM1_CC_IRQHandler      0x0802bcad    0xb0  Code  Gb  IRLowLevel.o [1]
TIM1_TRG_COM_TIM11_IRQHandler
                        0x0802d211          Code  Wk  startup_stm32f411xe.o [1]
TIM1_UP_TIM10_IRQHandler
                        0x0802d20d          Code  Wk  startup_stm32f411xe.o [1]
TIM2_IRQHandler         0x0802ceb1     0x2  Code  Gb  stm32f4xx_it.o [1]
TIM3_IRQHandler         0x0802bd6d    0x44  Code  Gb  VirtualTimer.o [1]
TIM4_IRQHandler         0x0802d215          Code  Wk  startup_stm32f411xe.o [1]
TIM5_IRQHandler         0x0802d249          Code  Wk  startup_stm32f411xe.o [1]
TIM_ClearITPendingBit   0x0802b6df     0x2  Code  Gb  stm32f4xx_tim.o [1]
TIM_Cmd                 0x0802b583    0x14  Code  Gb  stm32f4xx_tim.o [1]
TIM_GetITStatus         0x0802b6cb    0x14  Code  Gb  stm32f4xx_tim.o [1]
TIM_ICInit              0x0802b5d9    0x8a  Code  Gb  stm32f4xx_tim.o [1]
TIM_ITConfig            0x0802b6bb    0x10  Code  Gb  stm32f4xx_tim.o [1]
TIM_SetIC1Prescaler     0x0802b683     0xe  Code  Gb  stm32f4xx_tim.o [1]
TIM_SetIC2Prescaler     0x0802b691     0xe  Code  Gb  stm32f4xx_tim.o [1]
TIM_SetIC3Prescaler     0x0802b69f     0xe  Code  Gb  stm32f4xx_tim.o [1]
TIM_SetIC4Prescaler     0x0802b6ad     0xe  Code  Gb  stm32f4xx_tim.o [1]
TIM_TimeBaseInit        0x0802b521    0x62  Code  Gb  stm32f4xx_tim.o [1]
TWI2_initialize         0x08029d0d     0xe  Code  Gb  I2C2LowLevel.o [1]
TWI_initialize          0x080149ed     0xe  Code  Gb  I2C1LowLevel.o [1]
ThxInsertInQueue        0x0802472f    0x3a  Code  Lc  si_thx_component.o [1]
ThxPktExistsInQueue     0x080246fb    0x34  Code  Lc  si_thx_component.o [1]
ThxPrintQueue           0x08024769     0xa  Code  Lc  si_thx_component.o [1]
Treb_table              0x08010a84    0x34  Data  Lc  AudioDeviceManager.o [1]
TxAllInfoFramesUpdate   0x0801e441    0x30  Code  Gb  si_tx_info_frm.o [1]
TxAudioI2SConfigSet     0x0801e9d5    0x1e  Code  Gb  si_tx_audio.o [1]
TxAudioInit             0x0801e9bf     0xa  Code  Gb  si_tx_audio.o [1]
TxAudioIsTransmitting   0x0801e9c9     0xc  Code  Gb  si_tx_audio.o [1]
TxAudioModeSet          0x0801e9f3    0x16  Code  Gb  si_tx_audio.o [1]
TxAudioMute             0x0801ea09     0x4  Code  Gb  si_tx_audio.o [1]
TxAudioOnAcpPacketUpdate
                        0x0801ea0d     0xe  Code  Gb  si_tx_audio.o [1]
TxAudioOnHdmiModeChange
                        0x0801ea1b     0x2  Code  Gb  si_tx_audio.o [1]
TxAudioUpdateFromInfoFrame
                        0x0801ea1d    0x86  Code  Gb  si_tx_audio.o [1]
TxAviColorSpaceSet      0x0801e5d3    0x28  Code  Gb  si_tx_avi.o [1]
TxAviFrameCreate        0x0801e5fb    0xaa  Code  Gb  si_tx_avi.o [1]
TxAviInfoFrameUpdate    0x0801e471     0x4  Code  Gb  si_tx_info_frm.o [1]
TxAviInit               0x0801e579     0xa  Code  Gb  si_tx_avi.o [1]
TxAviPostAviPacket      0x0801e583    0x50  Code  Gb  si_tx_avi.o [1]
TxHdcpConfig            0x0801de21    0x1c  Code  Gb  si_tx_hdcp.o [1]
TxHdcpInit              0x0801de01    0x20  Code  Gb  si_tx_hdcp.o [1]
TxHdcpInterruptHandler  0x0801df1f   0x136  Code  Gb  si_tx_hdcp.o [1]
TxHdcpLastMessageGet    0x0801e0d3    0x10  Code  Gb  si_tx_hdcp.o [1]
TxHdcpOnOutputEnable    0x0801de93    0x3a  Code  Gb  si_tx_hdcp.o [1]
TxHdcpRequestReauthentication
                        0x0801e0a5    0x1a  Code  Gb  si_tx_hdcp.o [1]
TxHdcpReset             0x0801decd    0x42  Code  Gb  si_tx_hdcp.o [1]
TxHdcpStart             0x0801de51    0x42  Code  Gb  si_tx_hdcp.o [1]
TxHdcpStop              0x0801de3d    0x14  Code  Gb  si_tx_hdcp.o [1]
TxHdcpTimerHandler      0x0801e05d    0x48  Code  Gb  si_tx_hdcp.o [1]
TxInfoAllPacketsStop    0x0801e2d3     0xa  Code  Gb  si_tx_info_frm.o [1]
TxInfoAvMute            0x0801e423    0x1e  Code  Gb  si_tx_info_frm.o [1]
TxInfoFrameLockSet      0x0801e4f3    0x76  Code  Gb  si_tx_info_frm.o [1]
TxInfoInit              0x0801e2a3    0x12  Code  Gb  si_tx_info_frm.o [1]
TxInfoPacketSet         0x0801e2dd   0x146  Code  Gb  si_tx_info_frm.o [1]
TxInfoPacketTransmissionEnable
                        0x0801e2b5    0x1e  Code  Gb  si_tx_info_frm.o [1]
TxIsInfoFrameLocked     0x0801e475    0x54  Code  Gb  si_tx_info_frm.o [1]
TxIsOutInHdmiMode       0x08019679     0x2  Code  Gb  si_tx_component.o [1]
TxIsRunning             0x0801965b    0x14  Code  Gb  si_tx_component.o [1]
TxIsTmdsEnabled         0x0801964d     0xe  Code  Gb  si_tx_component.o [1]
TxTmdsBlankPause        0x0801967b    0x1c  Code  Gb  si_tx_component.o [1]
TxVideoFormatIdGet      0x0801966f     0xa  Code  Gb  si_tx_component.o [1]
UARTCmdDispatcher_CreateTask
                        0x0802c827    0x36  Code  Gb  UARTCmdDispatcher.o [1]
UARTCmdDispatcher_poll  0x0802c7ed    0x3a  Code  Gb  UARTCmdDispatcher.o [1]
UARTLowLevel_getDataLength
                        0x0802c651     0x8  Code  Gb  UART_LowLevel.o [1]
UARTLowLevel_readData   0x0802c659    0x82  Code  Gb  UART_LowLevel.o [1]
UDM_ObjCtrl             0x0802d17c     0xc  Data  Gb  UIDeviceManager.o [1]
UIDeviceManager_CreateTask
                        0x0802932d     0x8  Code  Gb  UIDeviceManager.o [1]
UIDeviceManager_Debounce
                        0x08028d69    0x30  Code  Gb  UIDeviceManager.o [1]
UIDeviceManager_Exception_handleCommand
                        0x08029191   0x188  Code  Lc  UIDeviceManager.o [1]
UIDeviceManager_SetStatus
                        0x08028d4d    0x1c  Code  Gb  UIDeviceManager.o [1]
UIDeviceManager_handleCommand
                        0x08028d9d   0x3d0  Code  Lc  UIDeviceManager.o [1]
UIFirstPowerVolramp     0x2000a589     0x1  Data  Lc  UIDeviceManager.o [1]
ULDLoaderbuf            0x20009e38     0x4  Data  Lc  cs49844.o [1]
USART1_IRQHandler       0x0802d231          Code  Wk  startup_stm32f411xe.o [1]
USART2_IRQHandler       0x0802d235          Code  Wk  startup_stm32f411xe.o [1]
USART6_IRQHandler       0x0802d271          Code  Wk  startup_stm32f411xe.o [1]
USBD_CDC_cb             0x2000a238    0x2c  Data  Gb  usbd_cdc_core.o [1]
USBD_ClrCfg             0x0800f45f     0xe  Code  Gb  usbd_core.o [1]
USBD_CtlContinueRx      0x0800fb43     0x2  Code  Gb  usbd_ioreq.o [1]
USBD_CtlContinueSendData
                        0x0800fb21     0x2  Code  Gb  usbd_ioreq.o [1]
USBD_CtlError           0x0800fab1    0x1a  Code  Gb  usbd_req.o [1]
USBD_CtlPrepareRx       0x0800fb31    0x12  Code  Gb  usbd_ioreq.o [1]
USBD_CtlReceiveStatus   0x0800fb63     0xe  Code  Gb  usbd_ioreq.o [1]
USBD_CtlSendData        0x0800fb0f    0x12  Code  Gb  usbd_ioreq.o [1]
USBD_CtlSendStatus      0x0800fb53    0x10  Code  Gb  usbd_ioreq.o [1]
USBD_DCD_INT_cb         0x2000a264    0x2c  Data  Gb  usbd_core.o [1]
USBD_DCD_INT_fops       0x2000a648     0x4  Data  Gb  usbd_core.o [1]
USBD_DataInStage        0x0800f321    0xa6  Code  Lc  usbd_core.o [1]
USBD_DataOutStage       0x0800f2af    0x72  Code  Lc  usbd_core.o [1]
USBD_DevConnected       0x0800f489    0x16  Code  Lc  usbd_core.o [1]
USBD_DevDisconnected    0x0800f49f     0x2  Code  Lc  usbd_core.o [1]
USBD_DeviceDesc         0x2000a478    0x14  Data  Gb  usbd_desc.o [1]
USBD_GetDescriptor      0x0800f9a1    0xc6  Code  Lc  usbd_req.o [1]
USBD_GetString          0x0800facb    0x44  Code  Gb  usbd_req.o [1]
USBD_Init               0x0800f22d    0x36  Code  Gb  usbd_core.o [1]
USBD_IsoINIncomplete    0x0800f46d     0xe  Code  Lc  usbd_core.o [1]
USBD_IsoOUTIncomplete   0x0800f47b     0xe  Code  Lc  usbd_core.o [1]
USBD_LangIDDesc         0x2000a64c     0x4  Data  Gb  usbd_desc.o [1]
USBD_OTG_ISR_Handler    0x08029e81   0x1ca  Code  Gb  usb_dcd_int.o [1]
USBD_ParseSetupRequest  0x0800fa75    0x3c  Code  Gb  usbd_req.o [1]
USBD_Reset              0x0800f3cd    0x2e  Code  Lc  usbd_core.o [1]
USBD_Resume             0x0800f3fb    0x1e  Code  Lc  usbd_core.o [1]
USBD_SOF                0x0800f435    0x12  Code  Lc  usbd_core.o [1]
USBD_SetCfg             0x0800f447    0x18  Code  Gb  usbd_core.o [1]
USBD_SetupStage         0x0800f263    0x4c  Code  Lc  usbd_core.o [1]
USBD_StdDevReq          0x0800f72d   0x16a  Code  Gb  usbd_req.o [1]
USBD_StdEPReq           0x0800f8cf    0xbc  Code  Gb  usbd_req.o [1]
USBD_StdItfReq          0x0800f897    0x2e  Code  Gb  usbd_req.o [1]
USBD_StrDesc            0x2000ace4   0x100  Data  Gb  usbd_req.o [1]
USBD_Suspend            0x0800f419    0x1c  Code  Lc  usbd_core.o [1]
USBD_USR_ConfigStrDescriptor
                        0x0802c1bd     0xc  Code  Gb  usbd_desc.o [1]
USBD_USR_DeviceConfigured
                        0x0800e0c3     0x2  Code  Gb  usbd_usr.o [1]
USBD_USR_DeviceConnected
                        0x0800e0c9     0x2  Code  Gb  usbd_usr.o [1]
USBD_USR_DeviceDescriptor
                        0x0802c171     0x8  Code  Gb  usbd_desc.o [1]
USBD_USR_DeviceDisconnected
                        0x0800e0cb     0x2  Code  Gb  usbd_usr.o [1]
USBD_USR_DeviceReset    0x0800e0c1     0x2  Code  Gb  usbd_usr.o [1]
USBD_USR_DeviceResumed  0x0800e0c7     0x2  Code  Gb  usbd_usr.o [1]
USBD_USR_DeviceSuspended
                        0x0800e0c5     0x2  Code  Gb  usbd_usr.o [1]
USBD_USR_Init           0x0800e0bf     0x2  Code  Gb  usbd_usr.o [1]
USBD_USR_InterfaceStrDescriptor
                        0x0802c1d5    0x12  Code  Gb  usbd_desc.o [1]
USBD_USR_LangIDStrDescriptor
                        0x0802c179     0x8  Code  Gb  usbd_desc.o [1]
USBD_USR_ManufacturerStrDescriptor
                        0x0802c193     0xe  Code  Gb  usbd_desc.o [1]
USBD_USR_ProductStrDescriptor
                        0x0802c181    0x12  Code  Gb  usbd_desc.o [1]
USBD_USR_SerialStrDescriptor
                        0x0802c1a1    0x12  Code  Gb  usbd_desc.o [1]
USBD_cdc_GetCfgDesc     0x0802b94d     0x8  Code  Lc  usbd_cdc_core.o [1]
USBD_cfg_status         0x2000b5f0     0x4  Data  Gb  usbd_req.o [1]
USBD_default_cfg        0x2000b5f4     0x4  Data  Gb  usbd_req.o [1]
USBD_ep_status          0x2000b6a0     0x4  Data  Gb  usbd_req.o [1]
USBH_Connected          0x0802d105     0x4  Code  Gb  usbh_core.o [1]
USBH_Disconnected       0x0802d109     0x2  Code  Gb  usbh_core.o [1]
USBH_HCD_INT_cb         0x2000a554     0xc  Data  Gb  usbh_core.o [1]
USBH_HCD_INT_fops       0x2000a650     0x4  Data  Gb  usbh_core.o [1]
USBH_OTG_ISR_Handler    0x080264a5    0xdc  Code  Gb  usb_hcd_int.o [1]
USBH_SOF                0x0802d113     0x4  Code  Gb  usbh_core.o [1]
USBHostDeviceHandle     0x0802d194     0xc  Data  Gb  usb_host_device.o [1]
USBHostDeviceHandle_Switch
                        0x0800e47d    0x34  Code  Lc  usb_host_device.o [1]
USBHostDeviceHandler_CreateTask
                        0x0800e40b    0x6c  Code  Lc  usb_host_device.o [1]
USBHostDeviceHandler_MSC_ErrHandle
                        0x0800e3eb    0x20  Code  Lc  usb_host_device.o [1]
USBHostDeviceHandler_ServiceHandle
                        0x0800e4b1    0xc8  Code  Lc  usb_host_device.o [1]
USBHostDeviceHandler_get_mode
                        0x0800e477     0x6  Code  Lc  usb_host_device.o [1]
USB_OTG_BSP_EnableInterrupt
                        0x0800f6eb     0xc  Code  Gb  usb_bsp.o [1]
USB_OTG_BSP_Init        0x0800f661    0x7e  Code  Gb  usb_bsp.o [1]
USB_OTG_BSP_mDelay      0x0800f723     0x8  Code  Gb  usb_bsp.o [1]
USB_OTG_BSP_uDelay      0x0800f70f    0x14  Code  Gb  usb_bsp.o [1]
USB_OTG_Core            0x20008030   0xa90  Data  Gb  usb_host_device.o [1]
USB_OTG_CoreInit        0x0800eaeb    0x76  Code  Gb  usb_core.o [1]
USB_OTG_CoreInitDev     0x0800eced   0x106  Code  Gb  usb_core.o [1]
USB_OTG_CoreReset       0x0800e997    0x4a  Code  Lc  usb_core.o [1]
USB_OTG_DisableGlobalInt
                        0x0800eb6b     0x8  Code  Gb  usb_core.o [1]
USB_OTG_EP0Activate     0x0800ee4b    0x38  Code  Gb  usb_core.o [1]
USB_OTG_EP0StartXfer    0x0800f029    0xce  Code  Gb  usb_core.o [1]
USB_OTG_EP0_OutStart    0x0800f16f    0x20  Code  Gb  usb_core.o [1]
USB_OTG_EPActivate      0x0800ee83    0x60  Code  Gb  usb_core.o [1]
USB_OTG_EPClearStall    0x0800f11f    0x28  Code  Gb  usb_core.o [1]
USB_OTG_EPDeactivate    0x0800eee3    0x2c  Code  Gb  usb_core.o [1]
USB_OTG_EPSetStall      0x0800f0f7    0x22  Code  Gb  usb_core.o [1]
USB_OTG_EPStartXfer     0x0800ef0f   0x11a  Code  Gb  usb_core.o [1]
USB_OTG_EnableCommonInt
                        0x0800e981    0x16  Code  Lc  usb_core.o [1]
USB_OTG_EnableDevInt    0x0800edf3    0x20  Code  Gb  usb_core.o [1]
USB_OTG_EnableGlobalInt
                        0x0800eb61     0xa  Code  Gb  usb_core.o [1]
USB_OTG_FlushRxFifo     0x0800eba3    0x20  Code  Gb  usb_core.o [1]
USB_OTG_FlushTxFifo     0x0800eb79    0x2a  Code  Gb  usb_core.o [1]
USB_OTG_GetDeviceSpeed  0x0800ee23    0x28  Code  Gb  usb_core.o [1]
USB_OTG_GetMode         0x0800ebff     0xa  Code  Gb  usb_core.o [1]
USB_OTG_HC_DoPing       0x0800ecbd    0x1e  Code  Gb  usb_core.o [1]
USB_OTG_HC_Halt         0x0800ec73    0x4a  Code  Gb  usb_core.o [1]
USB_OTG_InitDevSpeed    0x0800ecdb     0x2  Code  Gb  usb_core.o [1]
USB_OTG_InitFSLSPClkSel
                        0x0800ec33     0x4  Code  Gb  usb_core.o [1]
USB_OTG_IsDeviceMode    0x0800ec09    0x12  Code  Gb  usb_core.o [1]
USB_OTG_IsHostMode      0x0800ec1b     0xe  Code  Gb  usb_core.o [1]
USB_OTG_ReadCoreItr     0x0800ec29     0xa  Code  Gb  usb_core.o [1]
USB_OTG_ReadDevAllInEPItr
                        0x0800f163     0xc  Code  Gb  usb_core.o [1]
USB_OTG_ReadDevAllOutEp_itr
                        0x0800f147     0xc  Code  Gb  usb_core.o [1]
USB_OTG_ReadDevOutEP_itr
                        0x0800f153    0x10  Code  Gb  usb_core.o [1]
USB_OTG_ReadHPRT0       0x0800ec37     0xc  Code  Gb  usb_core.o [1]
USB_OTG_ReadPacket      0x0800ea0b    0x24  Code  Gb  usb_core.o [1]
USB_OTG_ResetPort       0x0800ec43    0x30  Code  Gb  usb_core.o [1]
USB_OTG_SelectCore      0x0800ea2f    0xbc  Code  Gb  usb_core.o [1]
USB_OTG_SetCurrentMode  0x0800ebd9    0x26  Code  Gb  usb_core.o [1]
USB_OTG_StopDevice      0x0800f1e1    0x3a  Code  Gb  usb_core.o [1]
USB_OTG_USBH_handle_IncompletePeriodicXfer_ISR
                        0x080270a5    0x28  Code  Lc  usb_hcd_int.o [1]
USB_OTG_USBH_handle_hc_n_In_ISR
                        0x08026c05   0x38c  Code  Lc  usb_hcd_int.o [1]
USB_OTG_USBH_handle_hc_n_Out_ISR
                        0x080268c5   0x340  Code  Lc  usb_hcd_int.o [1]
USB_OTG_USBH_handle_nptxfempty_ISR
                        0x08026581   0x11a  Code  Lc  usb_hcd_int.o [1]
USB_OTG_USBH_handle_port_ISR
                        0x080267b7   0x108  Code  Lc  usb_hcd_int.o [1]
USB_OTG_USBH_handle_ptxfempty_ISR
                        0x0802669b   0x11c  Code  Lc  usb_hcd_int.o [1]
USB_OTG_USBH_handle_rx_qlvl_ISR
                        0x08026f91   0x114  Code  Lc  usb_hcd_int.o [1]
USB_OTG_UngateClock     0x0800f1c5    0x1c  Code  Gb  usb_core.o [1]
USB_OTG_WritePacket     0x0800e9e1    0x2a  Code  Gb  usb_core.o [1]
USB_Rx_Buffer           0x2000b2b8    0x40  Data  Gb  usbd_cdc_core.o [1]
USB_Tx_State            0x2000a8d0     0x1  Data  Gb  usbd_cdc_core.o [1]
USR_cb                  0x2000a3b8    0x1c  Data  Gb  usbd_usr.o [1]
USR_desc                0x2000a39c    0x1c  Data  Gb  usbd_desc.o [1]
UpdateAll               0x0801e843   0x17c  Code  Lc  si_tx_audio.o [1]
UpdateFinalZoneConf     0x080229fd    0x70  Code  Lc  sk_app_switch.o [1]
UpdateHdmiCecData       0x0801b3c3    0x72  Code  Lc  si_drv_edid_rx.o [1]
UpdateHdmiCecTranslationRegisters
                        0x0801b2e9    0xda  Code  Lc  si_drv_edid_rx.o [1]
UpdateResInfo           0x08022a6d    0xbc  Code  Lc  sk_app_switch.o [1]
UpdateTaskQueueState    0x0801c1ed    0x32  Code  Lc  si_cec_controller.o [1]
UpdateWindowSpecs       0x08024955   0x2f4  Code  Lc  si_ipv_component.o [1]
UsageFault_Handler      0x0802ce5d     0x2  Code  Gb  stm32f4xx_it.o [1]
VCP_Ctrl                0x0802ca99    0x56  Code  Lc  usbd_cdc_vcp.o [1]
VCP_DataRx              0x0802cb29    0x1c  Code  Lc  usbd_cdc_vcp.o [1]
VCP_DataTx              0x0802caef    0x2e  Code  Lc  usbd_cdc_vcp.o [1]
VCP_DeInit              0x0802ca95     0x4  Code  Lc  usbd_cdc_vcp.o [1]
VCP_Init                0x0802ca91     0x4  Code  Lc  usbd_cdc_vcp.o [1]
VCP_fops                0x2000a464    0x14  Data  Gb  usbd_cdc_vcp.o [1]
VIZ_FAC_IR_CMD_KEY_MAP  0x2000a170    0x34  Data  Lc  IRCmdHandler.o [1]
VideoModeTable          0x08021518   0xd14  Data  Gb  si_video_tables.o [1]
VirtualTimer_init       0x0802bdb1    0x66  Code  Gb  VirtualTimer.o [1]
VirtualTimer_now        0x0802be17     0x6  Code  Gb  VirtualTimer.o [1]
WWDG_IRQHandler         0x0802d1c9          Code  Wk  startup_stm32f411xe.o [1]
_AmtranRegRead          0x0801402b    0x5a  Code  Gb  si_cra.o [1]
_App_I2C1_sema_mutex_create
                        0x08014ac7     0x4  Code  Lc  I2C1LowLevel.o [1]
_DRV_I2C1_SEMA          0x2000a568     0x4  Data  Lc  I2C1LowLevel.o [1]
_DRV_I2C1_sema_mutex_create
                        0x080143db     0x8  Code  Lc  I2C1LowLevel.o [1]
_DRV_I2C1_sema_mutex_give
                        0x080143fb    0x18  Code  Lc  I2C1LowLevel.o [1]
_DRV_I2C1_sema_mutex_take
                        0x080143e3    0x18  Code  Lc  I2C1LowLevel.o [1]
_DRV_xI2C1_BlockTime    0x2000a56c     0x4  Data  Lc  I2C1LowLevel.o [1]
_I2C1_SEMA              0x2000a570     0x4  Data  Lc  I2C1LowLevel.o [1]
_IRQ_SEMA               0x2000b404     0x4  Data  Lc  cs49844.o [1]
_SPI_SEMA               0x2000b63c     0x4  Data  Lc  SPILowLevel.o [1]
__STM32_I2C2_readSlave  0x080299c9   0x160  Code  Lc  I2C2LowLevel.o [1]
__STM32_I2C2_writeSlave
                        0x08029b55    0xf0  Code  Lc  I2C2LowLevel.o [1]
__STM32_I2C_readSlave   0x0801449d   0x152  Code  Lc  I2C1LowLevel.o [1]
__STM32_I2C_writeSlave  0x080145fd   0x156  Code  Lc  I2C1LowLevel.o [1]
__aeabi_memclr          0x080143b1          Code  Gb  ABImemclr.o [5]
__aeabi_memclr4         0x080139b9          Code  Gb  ABImemclr4.o [5]
__aeabi_memcpy          0x0800e049          Code  Gb  ABImemcpy.o [5]
__aeabi_memcpy4         0x0800e069          Code  Gb  ABImemcpy.o [5]
__aeabi_memcpy8         0x0800e069          Code  Gb  ABImemcpy.o [5]
__aeabi_memset          0x08014d89          Code  Gb  ABImemset.o [5]
__aeabi_memset4         0x080139c1          Code  Gb  ABImemset48.o [5]
__aeabi_memset8         0x080139c1          Code  Gb  ABImemset48.o [5]
__cmain                 0x0802d0bd          Code  Gb  cmain.o [5]
__exit                  0x0802d0e5          Code  Gb  XXexit.o [5]
__iar_Memset            0x08014d89          Code  Gb  ABImemset.o [5]
__iar_Memset4_word      0x080139c9          Code  Gb  ABImemset48.o [5]
__iar_Memset8_word      0x080139c9          Code  Gb  ABImemset48.o [5]
__iar_Memset_word       0x08014d91          Code  Gb  ABImemset.o [5]
__iar_SB                0x0802d288          Data  Gb  bwt_init3c.o [5]
__iar_data_init3        0x0802cfcd    0x2c  Code  Gb  data_init3.o [5]
__iar_init_vfp          0x0802d089          Code  Gb  fpinit_M.o [4]
__iar_packbits_init3    0x0802ccab    0xa0  Code  Gb  packbits_init3.o [5]
__iar_program_start     0x0802d1a1          Code  Gb  cstartup_M.o [5]
__iar_strcmp            0x08025125          Code  Gb  strcmp.o [5]
__iar_zero_init3        0x0800dd6f    0x22  Code  Gb  zero_init3.o [5]
__vector_table          0x08008000          Data  Gb  startup_stm32f411xe.o [1]
_call_main              0x0802d0c9          Code  Gb  cmain.o [5]
_exit                   0x0802d0d9          Code  Gb  cexit.o [5]
_main                   0x0802d0cf          Code  Gb  cmain.o [5]
_xI2C1_BlockTime        0x2000a574     0x4  Data  Lc  I2C1LowLevel.o [1]
adjustTrebleBass        0x2000a588     0x1  Data  Lc  UIDeviceManager.o [1]
app                     0x2000ade4    0xcc  Data  Gb  sk953x_avr_repeater.o [1]
appCbus                 0x2000b20c    0x68  Data  Gb  sk_app_cbus.o [1]
appCec                  0x2000a54c     0x8  Data  Gb  sk_app_cec.o [1]
appCecSourceLaList      0x2000a43e     0x2  Data  Gb  sk_app_cec.o [1]
arcDrvInstance          0x2000a42c    0x10  Data  Gb  si_drv_arc.o [1]
audio_fs_list           0x0801aaf4    0x50  Data  Lc  si_drv_audio.o [1]
avdelay                 0x08029364    0x18  Data  Lc  UIDeviceManager.o [1]
bFlasgingVector         0x2000a4ff     0x1  Data  Lc  HT68F30.o [1]
bIsI2C2_enable          0x2000b66f     0x1  Data  Lc  I2C2LowLevel.o [1]
bIsI2C_enable           0x2000b66e     0x1  Data  Lc  I2C1LowLevel.o [1]
bIsSPI_enable           0x2000b638     0x1  Data  Lc  SPILowLevel.o [1]
bStandby                0x2000a500     0x1  Data  Lc  HT68F30.o [1]
buildVersion            0x2000a5f0     0x4  Data  Gb  buildtime.o [1]
cbusDrvInstance         0x20009d04    0x40  Data  Gb  si_drv_cbus_main.o [1]
cbusInitCbusRegsList    0x20009cc0    0x40  Data  Lc  si_drv_cbus_main.o [1]
cbusInstance            0x2000a658   0x278  Data  Gb  si_cbus_component.o [1]
cdcCmd                  0x2000a054     0x4  Data  Lc  usbd_cdc_core.o [1]
cdcInstance             0x200092b8   0x278  Data  Gb  si_cdc_component.o [1]
cdcIo                   0x2000b52c    0x1c  Data  Lc  sk_app_cdc.o [1]
cdcLen                  0x2000a058     0x4  Data  Lc  usbd_cdc_core.o [1]
ceaVicToVideoTableIndex
                        0x0802cf58    0x44  Data  Gb  si_video_tables.o [1]
cecInstance             0x20009534   0x244  Data  Gb  si_cec_component.o [1]
cecValidate             0x20009d44    0x80  Data  Lc  si_cec_controller.o [1]
cpiInstance             0x20009b1c    0x88  Data  Gb  si_drv_cpi.o [1]
craInstance             0x2000b19c     0xc  Data  Gb  si_cra.o [1]
cs49844_FchDetector     0x0800ac99    0x16  Code  Gb  cs49844.o [1]
cs49844_FchDetector_CreateTask
                        0x0800c595    0x32  Code  Lc  cs49844.o [1]
cs49844_FchDetector_TaskCtrl
                        0x0800c563    0x2a  Code  Lc  cs49844.o [1]
cs49844_GetAudioStreamType
                        0x0800ab09     0x8  Code  Lc  cs49844.o [1]
cs49844_GetLoadrState   0x0800ab11     0x8  Code  Lc  cs49844.o [1]
cs49844_LoadDSP_ULD     0x0800c68b    0xd2  Code  Lc  cs49844.o [1]
cs49844_LowLevelDetector_CreateTask
                        0x0800abf7    0x3e  Code  Lc  cs49844.o [1]
cs49844_LowLevelDetector_TaskCtrl
                        0x0800abb5    0x42  Code  Lc  cs49844.o [1]
cs49844_RowDataLoader_CreateTask
                        0x0800c625    0x66  Code  Lc  cs49844.o [1]
cs49844_RowDataLoader_GetQueueNumber
                        0x0800acaf    0x10  Code  Lc  cs49844.o [1]
cs49844_RowDataLoader_InstrSender
                        0x0800acbf    0x3e  Code  Lc  cs49844.o [1]
cs49844_RowDataLoader_Task
                        0x0800acfd   0x41a  Code  Gb  cs49844.o [1]
cs49844_RowDataLoader_TaskCtrl
                        0x0800c5d1    0x54  Code  Lc  cs49844.o [1]
cs49844_SetTVHDMC_Ctrl  0x0800aa4d    0x1e  Code  Lc  cs49844.o [1]
cs49844_getAutoDectMsg  0x0800ac35    0x1c  Code  Lc  cs49844.o [1]
cs49844_getSignalLevel  0x0800ab19     0x8  Code  Gb  cs49844.o [1]
cs49844_irq_mutex_give  0x0800ab67    0x18  Code  Lc  cs49844.o [1]
cs49844_lowlevel_task   0x0800aba9     0xc  Code  Gb  cs49844.o [1]
cs49844_lowlevel_task_setState
                        0x0800ab89    0x20  Code  Lc  cs49844.o [1]
cs49844_parseAudioFMT   0x0800ac51    0x48  Code  Lc  cs49844.o [1]
cs49844_setAVDelay      0x0800aa7f    0x14  Code  Lc  cs49844.o [1]
cs49844_setAudioRoute   0x0800aa93    0x20  Code  Lc  cs49844.o [1]
cs49844_setBalanceLs    0x0800aa25    0x14  Code  Lc  cs49844.o [1]
cs49844_setBalanceRs    0x0800aa39    0x14  Code  Lc  cs49844.o [1]
cs49844_setBassGain     0x0800a9c1    0x14  Code  Lc  cs49844.o [1]
cs49844_setCenterGain   0x0800a9fd    0x14  Code  Lc  cs49844.o [1]
cs49844_setLsRsGain     0x0800aa11    0x14  Code  Lc  cs49844.o [1]
cs49844_setMasterGain   0x0800a9a5    0x1c  Code  Lc  cs49844.o [1]
cs49844_setMute         0x0800a991    0x14  Code  Lc  cs49844.o [1]
cs49844_setNightMode    0x0800aa6b    0x14  Code  Lc  cs49844.o [1]
cs49844_setSilenceThreshold
                        0x0800aaf5    0x14  Code  Lc  cs49844.o [1]
cs49844_setSubGain      0x0800a9e9    0x14  Code  Lc  cs49844.o [1]
cs49844_setTrebleGain   0x0800a9d5    0x14  Code  Lc  cs49844.o [1]
cs49844_spi_mutex_give  0x0800ab49    0x1e  Code  Lc  cs49844.o [1]
cs49844_spi_mutex_take  0x0800ab21    0x28  Code  Lc  cs49844.o [1]
currentMode             0x2000b66c     0x1  Data  Gb  si_drv_repeater_sha.o [1]
currentSrq              0x2000b668     0x4  Data  Gb  si_drv_repeater_sha.o [1]
currentTopoMode         0x2000b5ff     0x1  Data  Gb  si_drv_repeater.o [1]
defaultDsEdid           0x0802c8b0    0x80  Data  Gb  si_edid_tx_tables.o [1]
deviceDrvInstance       0x2000b5b4    0x10  Data  Gb  si_drv_sii953x.o [1]
dispData                0x2000aae4   0x100  Data  Lc  si_drv_sii953x.o [1]
drvCommonData           0x2000a53c     0x4  Data  Gb  si_drv_msw.o [1]
drvIpvInstance          0x2000b510    0x1c  Data  Gb  si_drv_ipv.o [1]
drvSwitchCommon         0x2000b678     0x4  Data  Gb  si_drv_msw.o [1]
drvSwitchInstance       0x2000a1d8    0x30  Data  Gb  si_drv_msw.o [1]
drvSwitchRegisterConf   0x2000a540     0x4  Data  Gb  si_drv_msw.o [1]
dsDdcError              0x2000b6a4     0x1  Data  Lc  si_drv_tpi_ddc_access.o [1]
edidDecodData           0x20008ac4   0x520  Data  Gb  si_edid_tx_component.o [1]
edidTxInstance          0x20008fe4   0x2d0  Data  Gb  si_edid_tx_component.o [1]
exit                    0x0802d0d3     0x4  Code  Gb  exit.o [3]
firstTime               0x2000b66d     0x1  Data  Gb  si_drv_repeater_sha.o [1]
format_indicator        0x20009f31     0x1  Data  Lc  AudioDeviceManager.o [1]
free_heap_size          0x2000a350     0x4  Data  Gb  HMI_Service.o [1]
gCurDSP_ULD_type        0x20009dd5     0x1  Data  Lc  cs49844.o [1]
gEdidFlashDevBootData   0x2000a0f0    0x40  Data  Gb  sk_app_ediddata.o [1]
gEdidFlashEdidTable     0x0802c550   0x100  Data  Gb  sk_app_ediddata.o [1]
gElapsedTick            0x2000b4b6     0x2  Data  Lc  si_timer.o [1]
gElapsedTick1           0x2000b4bc     0x2  Data  Lc  si_timer.o [1]
gSacInstRec             0x2000a210    0x28  Data  Gb  si_sac_main.o [1]
gSwitchInstRec          0x2000a418    0x10  Data  Gb  si_cec_switch_api.o [1]
gTimerCounters          0x2000b4c0     0xc  Data  Lc  si_timer.o [1]
gTimerElapsed           0x2000b4b4     0x2  Data  Lc  si_timer.o [1]
gTimerElapsed1          0x2000b4ba     0x2  Data  Lc  si_timer.o [1]
gTimerElapsedGranularity
                        0x2000b4b8     0x2  Data  Lc  si_timer.o [1]
gTimerElapsedGranularity1
                        0x2000b4be     0x2  Data  Lc  si_timer.o [1]
g_addrDescriptor        0x20009778   0x190  Data  Gb  si_cra_cfg.o [1]
g_siiRegPageBaseReassign
                        0x2000a50a     0x2  Data  Gb  si_cra_cfg.o [1]
g_siiRegPageBaseRegs    0x2000a1a4    0x34  Data  Gb  si_cra_cfg.o [1]
g_ulTickCounter         0x2000b4cc     0x4  Data  Gb  si_timer.o [1]
i2c1_event_timeout_check
                        0x0801442f    0x1a  Code  Gb  I2C1LowLevel.o [1]
i2c1_flag_timeout_check
                        0x08014413    0x1c  Code  Gb  I2C1LowLevel.o [1]
i2c2_event_timeout_check
                        0x0802999d    0x1a  Code  Gb  I2C2LowLevel.o [1]
i2c2_flag_timeout_check
                        0x08029981    0x1c  Code  Gb  I2C2LowLevel.o [1]
initRegsList            0x20009908   0x150  Data  Lc  si_drv_sii953x.o [1]
initSwitchSetting       0x2000a130    0x3c  Data  Gb  sk_app_repeater.o [1]
inputPort               0x2000b5f8     0x2  Data  Gb  si_drv_repeater.o [1]
inputPortToChange       0x2000b600     0x1  Data  Gb  si_drv_repeater.o [1]
intStatus               0x2000b5fa     0x2  Data  Gb  si_drv_repeater.o [1]
ipvInstance             0x2000aeb0    0xa4  Data  Gb  si_ipv_component.o [1]
ir_interrupt_time_tick  0x2000b508     0x4  Data  Gb  IRLowLevel.o [1]
ir_queue_number         0x2000aff8     0x2  Data  Gb  IRLowLevelDecoder.o [1]
ir_rowdata              0x2000b000    0x88  Data  Gb  IRLowLevelDecoder.o [1]
lCopyrightMsg           0x08020ad0    0x28  Data  Gb  sk953x_avr_repeater.o [1]
lSignonMsg              0x08020abc    0x14  Data  Gb  sk953x_avr_repeater.o [1]
l_allCecTypeList        0x2000a440    0x10  Data  Lc  sk_app_cec.o [1]
l_autoSwitchDelaysMs    0x2000a4dc    0x10  Data  Lc  sk_app_tv.o [1]
l_cecAvrOsdNameString   0x2000a4cc    0x10  Data  Lc  sk_app_cec.o [1]
l_devTypes              0x2000a4ac    0x10  Data  Gb  si_cec_controller.o [1]
l_devTypes              0x20009b08    0x10  Data  Lc  si_drv_cpi.o [1]
l_pageInstance          0x2000b1a8    0x64  Data  Lc  si_cra.o [1]
l_sinkCecTypeList       0x2000a43c     0x2  Data  Lc  sk_app_cec.o [1]
l_statusFlags           0x2000b60e     0x2  Data  Gb  si_drv_gpio.o [1]
linecoding              0x2000a5a8     0x8  Data  Gb  usbd_cdc_vcp.o [1]
mAdtectMsg              0x20009dc4     0x4  Data  Gb  cs49844.o [1]
mAudDevParms            0x20009f1c    0x10  Data  Lc  AudioDeviceManager.o [1]
mBTHandleComd           0x2000a2b0     0x1  Data  Gb  BTHandler.o [1]
mBTHandleCommand        0x2000a34c     0x1  Data  Lc  HMI_Service.o [1]
mBTHandleParams         0x2000a290    0x20  Data  Gb  BTHandler.o [1]
mBuffer                 0x20009c38    0x88  Data  Lc  UARTCmdDispatcher.o [1]
mCS8422IsrParsms        0x2000b430    0x20  Data  Gb  CS8422_ISR_Handler.o [1]
mHMISrvClusion          0x2000b474    0x20  Data  Lc  HMI_Service.o [1]
mHT68F30Parms           0x2000b620     0x8  Data  Lc  HT68F30.o [1]
mIrPayload              0x2000aff0     0x8  Data  Gb  IRLowLevelDecoder.o [1]
mIrPrgRemoteUserEvent   0x2000a354    0x24  Data  Gb  IRCmdHandler.o [1]
mIrState                0x2000a514     0x4  Data  Gb  IRCmdHandler.o [1]
mIsPCM                  0x20009f2e     0x1  Data  Lc  AudioDeviceManager.o [1]
mIsPCM96Khz             0x20009f2d     0x1  Data  Lc  AudioDeviceManager.o [1]
mLightBarParams         0x20009e3c    0x70  Data  Lc  HT68F30.o [1]
mLightBar_Duty1         0x08027fc8     0x4  Data  Lc  HT68F30.o [1]
mLoaderState            0x20009dd4     0x1  Data  Lc  cs49844.o [1]
mNewLightBarParams      0x20009eac    0x70  Data  Lc  HT68F30.o [1]
mPowerHandleParams      0x2000a498     0x4  Data  Lc  PowerHandler.o [1]
mPowerHandleState       0x2000a494     0x1  Data  Lc  PowerHandler.o [1]
mPowerState             0x2000a496     0x1  Data  Lc  PowerHandler.o [1]
mRFHandleParams         0x2000b494    0x20  Data  Lc  RFHandler.o [1]
mRF_CheckPaired         0x2000a51a     0x1  Data  Lc  RFHandler.o [1]
mRF_PairingProcess      0x2000a519     0x1  Data  Lc  RFHandler.o [1]
mRF_isPaired            0x2000a51b     0x1  Data  Lc  RFHandler.o [1]
mRF_isPairing           0x2000a518     0x1  Data  Lc  RFHandler.o [1]
mSubsysHandle           0x2000a495     0x1  Data  Lc  PowerHandler.o [1]
mSystemParams           0x2000a330    0x18  Data  Lc  HMI_Service.o [1]
mUIDevParms             0x2000a5e8     0x4  Data  Lc  UIDeviceManager.o [1]
mUSBHostDeviceHandleParams
                        0x20008018     0xc  Data  Lc  usb_host_device.o [1]
mUSB_HD_State           0x20008024     0x8  Data  Lc  usb_host_device.o [1]
mVolumeRampEvent        0x20009f2c     0x1  Data  Lc  AudioDeviceManager.o [1]
m_CHANNEL_1_VOL_REG     0x2000a400     0x2  Data  Lc  TAS5727.o [1]
m_CHANNEL_2_VOL_REG     0x2000a402     0x2  Data  Lc  TAS5727.o [1]
m_CHANNEL_3_VOL_REG     0x2000a404     0x2  Data  Lc  TAS5727.o [1]
m_Master_Vol            0x2000a406     0x2  Data  Lc  TAS5727.o [1]
m_Master_Vol_mute       0x2000a408     0x2  Data  Lc  TAS5727.o [1]
m_PwmMux_Data           0x2000a410     0x4  Data  Lc  TAS5727.o [1]
m_commandAssignment     0x2000b2f8    0x3c  Data  Lc  ButtonCmdDispatcher.o [1]
m_inputMux_Data         0x2000a40c     0x4  Data  Lc  TAS5727.o [1]
m_logicalToPhysicalEeprom
                        0x2000b610     0x8  Data  Lc  EepromDriver.o [1]
m_now                   0x2000b5e0     0x4  Data  Lc  VirtualTimer.o [1]
m_partitionSpaceAllocation
                        0x2000a3ec    0x14  Data  Lc  StorageDeviceDriver.o [1]
m_port                  0x2000b088    0x94  Data  Lc  UART_LowLevel.o [1]
m_sleep                 0x2000b5e4     0x4  Data  Lc  VirtualTimer.o [1]
m_storageSpaceAllocation
                        0x2000a49c    0x10  Data  Lc  StorageDeviceDriver.o [1]
m_traceEnableMask       0x2000b674     0x4  Data  Lc  Debug.o [1]
m_virtual_sec           0x2000b5e8     0x4  Data  Lc  VirtualTimer.o [1]
main                    0x0802cb8b    0x2e  Code  Gb  App_main.o [1]
master_gain_limit       0x2000a348     0x4  Data  Lc  HMI_Service.o [1]
memcmp                  0x080165d9          Code  Gb  memcmp.o [5]
nFlashCount             0x2000a4fc     0x1  Data  Lc  HT68F30.o [1]
nFlashSpeed             0x2000a4fe     0x1  Data  Lc  HT68F30.o [1]
nFlashSpeedTarget       0x2000a4fd     0x1  Data  Lc  HT68F30.o [1]
nScanCount              0x2000a504     0x1  Data  Lc  HT68F30.o [1]
nScanNum                0x2000a502     0x1  Data  Lc  HT68F30.o [1]
nStepsCount             0x2000a505     0x1  Data  Lc  HT68F30.o [1]
nStepsEndNum            0x2000a501     0x1  Data  Lc  HT68F30.o [1]
nStepsNum               0x2000a503     0x1  Data  Lc  HT68F30.o [1]
nvramDrvData            0x2000b5a4    0x10  Data  Gb  si_drv_nvram_sram.o [1]
pADC_ObjCtrl            0x2000a5f8     0x4  Data  Gb  cs5346.o [1]
pADM_ObjCtrl            0x20009f80     0x4  Data  Gb  AudioDeviceManager.o [1]
pAMP_DEV_ObjCtrl        0x2000a5b0     0x4  Data  Gb  AmplifierDeviceManager.o [1]
pASH_ObjCtrl            0x2000a5b4     0x4  Data  Gb  AudioSystemHandler.o [1]
pAllowedScalerModes     0x2000a624     0x4  Data  Gb  si_edid_tx_scaler.o [1]
pApp                    0x2000a32c     0x4  Data  Gb  sk953x_avr_repeater.o [1]
pAppCbus                0x2000b274     0x4  Data  Gb  sk_app_cbus.o [1]
pAppCec                 0x2000a548     0x4  Data  Gb  sk_app_cec.o [1]
pAudExtraction          0x2000a530     0x4  Data  Gb  si_audio_component.o [1]
pAudLowLevel_ObjCtrl    0x20009f84     0x4  Data  Gb  AudioDeviceManager.o [1]
pAudio                  0x2000a630     0x4  Data  Gb  si_tx_audio.o [1]
pAudioDevParms          0x20009f7c     0x4  Data  Gb  AudioDeviceManager.o [1]
pAvi                    0x2000a634     0x4  Data  Gb  si_tx_avi.o [1]
pBTHandle_ObjCtrl       0x2000a2b4     0x4  Data  Gb  BTHandler.o [1]
pBTN_ObjCtrl            0x2000a5b8     0x4  Data  Gb  ButtonCmdDispatcher.o [1]
pCbus                   0x2000a600     0x4  Data  Gb  si_cbus_component.o [1]
pCdc                    0x200092b4     0x4  Data  Gb  si_cdc_component.o [1]
pCec                    0x20009530     0x4  Data  Gb  si_cec_component.o [1]
pCecSwitch              0x2000a414     0x4  Data  Gb  si_cec_switch_api.o [1]
pCon                    0x2000a60c     0x4  Data  Gb  si_connection_monitor.o [1]
pCpi                    0x20009b18     0x4  Data  Gb  si_drv_cpi.o [1]
pCtrlCmd_ObjCtrl        0x2000a5bc     0x4  Data  Gb  CommandsManager.o [1]
pDAP_C_ObjCtrl          0x2000a5e0     0x4  Data  Gb  TAS5713.o [1]
pDAP_LR_ObjCtrl         0x2000a5e4     0x4  Data  Gb  TAS5727.o [1]
pDSP_ObjCtrl            0x2000a5f4     0x4  Data  Gb  cs49844.o [1]
pDrvArc                 0x2000a428     0x4  Data  Gb  si_drv_arc.o [1]
pDrvCbus                0x20009d00     0x4  Data  Gb  si_drv_cbus_main.o [1]
pDrvDevice              0x2000a618     0x4  Data  Gb  si_drv_sii953x.o [1]
pDrvIpv                 0x2000a610     0x4  Data  Gb  si_drv_ipv.o [1]
pDrvNvram               0x2000a614     0x4  Data  Gb  si_drv_nvram_sram.o [1]
pDrvRxAud               0x2000b594     0x4  Data  Gb  si_drv_audio.o [1]
pDrvSwitch              0x2000a208     0x4  Data  Gb  si_drv_msw.o [1]
pEdidTx                 0x20008ac0     0x4  Data  Gb  si_edid_tx_component.o [1]
pGPIOIsr_ObjCtrl        0x2000a5c0     0x4  Data  Gb  GPIOLowLevel.o [1]
pHDMI_DM_ObjCtrl        0x2000a640     0x4  Data  Gb  sk953x_avr_repeater.o [1]
pHS_ObjCtrl             0x2000a5c4     0x4  Data  Gb  HMI_Service.o [1]
pHdcp                   0x2000a638     0x4  Data  Gb  si_tx_hdcp.o [1]
pIRCmdHandle_ObjCtrl    0x2000a5cc     0x4  Data  Gb  IRCmdHandler.o [1]
pIR_LowLevel            0x2000a5d4     0x4  Data  Gb  IRLowLevel.o [1]
pIR_PrgRemote_ObjCtrl   0x2000a5d0     0x4  Data  Gb  IRCmdHandler.o [1]
pInfoFrm                0x2000a63c     0x4  Data  Gb  si_tx_info_frm.o [1]
pIpv                    0x2000a628     0x4  Data  Gb  si_ipv_component.o [1]
pLED_ObjCtrl            0x2000a5c8     0x4  Data  Gb  HT68F30.o [1]
pPowerHandle_ObjCtrl    0x2000a5d8     0x4  Data  Gb  PowerHandler.o [1]
pRFHandle_ObjCtrl       0x2000a520     0x4  Data  Gb  RFHandler.o [1]
pRpt                    0x2000a5a4     0x4  Data  Gb  si_repeater_component.o [1]
pRtpi                   0x2000a0ec     0x4  Data  Gb  si_rtpi_component.o [1]
pSDM_ObjCtrl            0x2000a5dc     0x4  Data  Gb  StorageDeviceManager.o [1]
pSRC_ObjCtrl            0x2000a5fc     0x4  Data  Gb  cs8422.o [1]
pSac                    0x2000a20c     0x4  Data  Gb  si_sac_main.o [1]
pSwitchSetting          0x2000a16c     0x4  Data  Gb  sk_app_repeater.o [1]
pSysTimeCountCurMs      0x2000b648     0x4  Data  Lc  si_cec_timer.o [1]
pSysTimeCountPrvMs      0x2000b64c     0x4  Data  Lc  si_cec_timer.o [1]
pThx                    0x2000a62c     0x4  Data  Gb  si_thx_component.o [1]
pTpi                    0x2000a620     0x4  Data  Gb  si_drv_tpi_system.o [1]
pTx                     0x2000a378     0x4  Data  Gb  si_tx_component.o [1]
pTxRegAccess            0x2000a61c     0x4  Data  Gb  si_drv_tpi_access.o [1]
pUDM_ObjCtrl            0x2000a5ec     0x4  Data  Gb  UIDeviceManager.o [1]
pUIDevParms             0x2000a58c     0x4  Data  Gb  UIDeviceManager.o [1]
pUSB_HD_ObjCtrl         0x2000a644     0x4  Data  Gb  usb_host_device.o [1]
pipeNumber              0x2000b5fe     0x1  Data  Gb  si_drv_repeater.o [1]
platform                0x2000b55c    0x14  Data  Gb  si_platform.o [1]
pluse_duration          0x2000b504     0x2  Data  Gb  IRLowLevel.o [1]
portArray               0x2000a654     0x2  Data  Gb  sk_app_cbus.o [1]
prvAddCurrentTaskToDelayedList
                        0x0800d969    0x32  Code  Lc  tasks.o [1]
prvCheckForValidListAndQueue
                        0x0800e373    0x4c  Code  Lc  timers.o [1]
prvCopyDataFromQueue    0x0800d15f    0x26  Code  Lc  queue.o [1]
prvCopyDataToQueue      0x0800d0f7    0x68  Code  Lc  queue.o [1]
prvIdleTask             0x0800d911    0x58  Code  Lc  tasks.o [1]
prvInsertTimerInActiveList
                        0x0800e23b    0x34  Code  Lc  timers.o [1]
prvProcessReceivedCommands
                        0x0800e26f    0xa2  Code  Lc  timers.o [1]
prvResetNextTaskUnblockTime
                        0x0800d99b    0x1a  Code  Lc  tasks.o [1]
prvSampleTimeNow        0x0800e217    0x24  Code  Lc  timers.o [1]
prvSwitchTimerLists     0x0800e311    0x56  Code  Lc  timers.o [1]
prvTaskExitError        0x0800de65    0x18  Code  Lc  port.o [1]
prvTimerTask            0x0800e185    0x92  Code  Lc  timers.o [1]
prvUnlockQueue          0x0800d185    0x5c  Code  Lc  queue.o [1]
pvPortMalloc            0x0800dbd1    0xa6  Code  Gb  heap_2.o [1]
pwr_state_subsys        0x2000a48c     0x8  Data  Lc  PowerHandler.o [1]
pxCurrentTCB            0x2000b11c     0x4  Data  Gb  tasks.o [1]
pxCurrentTimerList      0x2000b3a8     0x4  Data  Lc  timers.o [1]
pxDelayedTaskList       0x20009bcc     0x4  Data  Lc  tasks.o [1]
pxOverflowDelayedTaskList
                        0x20009bd0     0x4  Data  Lc  tasks.o [1]
pxOverflowTimerList     0x2000b3ac     0x4  Data  Lc  timers.o [1]
pxPortInitialiseStack   0x0800de41    0x24  Code  Gb  port.o [1]
pxReadyTasksLists       0x2000b120    0x78  Data  Lc  tasks.o [1]
ramp_delay              0x20009f30     0x1  Data  Lc  AudioDeviceManager.o [1]
repeaterIns             0x2000b370    0x38  Data  Gb  si_repeater_component.o [1]
req_index               0x2000b60c     0x1  Data  Gb  si_repeater_sha.o [1]
resChngStatus           0x2000b5fc     0x2  Data  Gb  si_drv_repeater.o [1]
retry_timer             0x2000a3e8     0x4  Data  Lc  BTHandler.o [1]
rtpiInitRegs            0x20009a58    0xb0  Data  Gb  si_rtpi_default_reg.o [1]
rtpiInstance            0x2000a0a8     0x4  Data  Gb  si_rtpi_component.o [1]
rtpiRdPtr               0x2000b602     0x1  Data  Gb  si_rtpi_component.o [1]
rtpiRegs                0x2000abe4   0x100  Data  Gb  si_rtpi_component.o [1]
rtpiWrPtr               0x2000b601     0x1  Data  Gb  si_rtpi_component.o [1]
rtpiWriteBuf            0x2000a0ac    0x40  Data  Gb  si_rtpi_component.o [1]
sEEDMA_InitStructure    0x2000b334    0x3c  Data  Lc  I2C1LowLevel.o [1]
sEEDataWritePointer     0x2000a564     0x4  Data  Lc  I2C1LowLevel.o [1]
sEETimeout              0x2000a560     0x4  Data  Lc  I2C1LowLevel.o [1]
sEE_Init                0x080149a3    0x4a  Code  Lc  I2C1LowLevel.o [1]
sEE_Init2               0x08029c51    0xbc  Code  Lc  I2C2LowLevel.o [1]
sEE_LowLevel_DMAConfig  0x0801445b    0x40  Code  Lc  I2C1LowLevel.o [1]
sEE_LowLevel_DeInit     0x0801490b    0x64  Code  Lc  I2C1LowLevel.o [1]
sEE_LowLevel_Init       0x080147e3   0x120  Code  Lc  I2C1LowLevel.o [1]
sEE_TIMEOUT_UserCallback
                        0x080143b9    0x22  Code  Gb  I2C1LowLevel.o [1]
sEE_TIMEOUT_UserCallback2
                        0x08029911    0x70  Code  Gb  I2C2LowLevel.o [1]
sFLASH_ReadBuffer       0x0800dcc1    0x40  Code  Gb  ext_flash_driver.o [1]
sFLASH_SendByte         0x0800dd29    0x2a  Code  Gb  ext_flash_driver.o [1]
sha_request_q           0x2000b604     0x8  Data  Gb  si_repeater_sha.o [1]
signal_overthreshold    0x2000a656     0x1  Data  Lc  cs49844.o [1]
siiIpvAlphaMax          0x2000b684     0x4  Data  Gb  si_ipv_data.o [1]
siiIpvAlphaStep         0x2000b688     0x4  Data  Gb  si_ipv_data.o [1]
siiIpvBorderColorsCrCbY
                        0x2000a4bc    0x10  Data  Gb  si_ipv_data.o [1]
siiIpvBorderEnables     0x2000a598     0x8  Data  Gb  si_ipv_data.o [1]
siiIpvCc                0x0802d04c     0xc  Data  Gb  si_ipv_data.o [1]
siiIpvCs                0x0802d058     0xc  Data  Gb  si_ipv_data.o [1]
siiIpvPipCoords         0x2000a2b8    0x28  Data  Gb  si_ipv_data.o [1]
siiIpvPipSizes          0x20009fec    0x64  Data  Gb  si_ipv_data.o [1]
siiIpvRad               0x0802d064     0x8  Data  Gb  si_ipv_data.o [1]
siiIpvWinSizes          0x20009f88    0x64  Data  Gb  si_ipv_data.o [1]
siiMainWindowSizes      0x2000a2e0    0x28  Data  Gb  si_ipv_data.o [1]
siiTpiInputBusSetupVal  0x2000b68c     0x4  Data  Gb  si_rtpi_component.o [1]
siiTpiSystemControlVal  0x2000b658     0x8  Data  Gb  si_rtpi_component.o [1]
start_time              0x2000a3e4     0x4  Data  Lc  BTHandler.o [1]
strcmp                  0x08025125          Code  Gb  strcmp.o [5]
strlen                  0x08020da9          Code  Gb  strlen.o [5]
sys_ctrl_reg_shadow     0x2000b6a5     0x1  Data  Lc  si_drv_tpi_ddc_access.o [1]
systemMonitorTaskHandle
                        0x2000b670     0x4  Data  Gb  App_main.o [1]
t_sec_formula           0x080161a8     0x8  Data  Lc  si_edid_tx_composer.o [1]
target_volume           0x20009f34     0x1  Data  Lc  AudioDeviceManager.o [1]
testTimer               0x2000b5c4     0xc  Data  Gb  sk_app_tx.o [1]
thxInst                 0x2000af54    0x9c  Data  Gb  si_thx_component.o [1]
thxVSIFHdrs             0x080229b8     0x8  Data  Gb  sk_app_thx.o [1]
txAccessInstRec         0x2000b67c     0x4  Data  Gb  si_drv_tpi_access.o [1]
txInstRec               0x2000a37c    0x20  Data  Gb  si_tx_component.o [1]
txTpiInstRec            0x2000b680     0x4  Data  Gb  si_drv_tpi_system.o [1]
ucHeap                  0x20000018  0x8000  Data  Lc  heap_2.o [1]
ucMaxSysCallPriority    0x2000a524     0x1  Data  Lc  port.o [1]
ulMaxPRIGROUPValue      0x2000a52c     0x4  Data  Lc  port.o [1]
ulPortSetInterruptMask  0x0800dde1          Code  Gb  portasm.o [1]
usart_lowlevel_handler  0x0802c6db    0x46  Code  Gb  UART_LowLevel.o [1]
usart_putchar           0x0800e3d9    0x12  Code  Gb  usb_host_device.o [1]
usbd_cdc_AltSet         0x2000a050     0x4  Data  Lc  usbd_cdc_core.o [1]
usbd_cdc_CfgDesc        0x2000a064    0x44  Data  Gb  usbd_cdc_core.o [1]
usbd_cdc_DataIn         0x0802b87f    0x36  Code  Lc  usbd_cdc_core.o [1]
usbd_cdc_DataOut        0x0802b8b5    0x28  Code  Lc  usbd_cdc_core.o [1]
usbd_cdc_DeInit         0x0802b78f    0x24  Code  Lc  usbd_cdc_core.o [1]
usbd_cdc_EP0_RxReady    0x0802b861    0x1e  Code  Lc  usbd_cdc_core.o [1]
usbd_cdc_Init           0x0802b749    0x46  Code  Lc  usbd_cdc_core.o [1]
usbd_cdc_SOF            0x0802b8dd    0x60  Code  Lc  usbd_cdc_core.o [1]
usbd_cdc_Setup          0x0802b7b3    0xae  Code  Lc  usbd_cdc_core.o [1]
uxCriticalNesting       0x2000a528     0x4  Data  Lc  port.o [1]
uxCurrentNumberOfTasks  0x20009bec     0x4  Data  Lc  tasks.o [1]
uxListRemove            0x0800e025    0x24  Code  Gb  list.o [1]
uxPendedTicks           0x20009bfc     0x4  Data  Lc  tasks.o [1]
uxQueueMessagesWaiting  0x0800d0db    0x14  Code  Gb  queue.o [1]
uxSchedulerSuspended    0x20009bf8     0x4  Data  Lc  tasks.o [1]
uxTaskNumber            0x20009c08     0x4  Data  Lc  tasks.o [1]
uxTasksDeleted          0x20009bd4     0x4  Data  Lc  tasks.o [1]
uxTopReadyPriority      0x2000b198     0x4  Data  Lc  tasks.o [1]
vListInitialise         0x0800dfc1    0x1a  Code  Gb  list.o [1]
vListInsert             0x0800dff3    0x32  Code  Gb  list.o [1]
vListInsertEnd          0x0800dfdb    0x18  Code  Gb  list.o [1]
vPortClearInterruptMask
                        0x0800ddef          Code  Gb  portasm.o [1]
vPortEnableVFP          0x0800de27          Code  Gb  portasm.o [1]
vPortEnterCritical      0x0800df01    0x18  Code  Gb  port.o [1]
vPortExitCritical       0x0800df19    0x18  Code  Gb  port.o [1]
vPortFree               0x0800dc77    0x32  Code  Gb  heap_2.o [1]
vPortSetupTimerInterrupt
                        0x0800df4f    0x18  Code  Wk  port.o [1]
vPortStartFirstTask     0x0800de11          Code  Gb  portasm.o [1]
vPortValidateInterruptPriority
                        0x0800df69    0x34  Code  Gb  port.o [1]
vPortYield              0x0800deef    0x12  Code  Gb  port.o [1]
vQueueAddToRegistry     0x0800d1e1    0x20  Code  Gb  queue.o [1]
vQueueWaitForMessageRestricted
                        0x0800d205    0x38  Code  Gb  queue.o [1]
vTaskDelay              0x0800d3e3    0x36  Code  Gb  tasks.o [1]
vTaskDelete             0x0800d399    0x4a  Code  Gb  tasks.o [1]
vTaskMissedYield        0x0800d907     0x8  Code  Gb  tasks.o [1]
vTaskPlaceOnEventList   0x0800d7c9    0x28  Code  Gb  tasks.o [1]
vTaskPlaceOnEventListRestricted
                        0x0800d809    0x20  Code  Gb  tasks.o [1]
vTaskPriorityDisinherit
                        0x0800da29    0x3e  Code  Gb  tasks.o [1]
vTaskPriorityInherit    0x0800d9d1    0x58  Code  Gb  tasks.o [1]
vTaskPrioritySet        0x0800d419    0x8a  Code  Gb  tasks.o [1]
vTaskResume             0x0800d545    0x58  Code  Gb  tasks.o [1]
vTaskSetTimeOutState    0x0800d89d    0x16  Code  Gb  tasks.o [1]
vTaskStartScheduler     0x0800d5a3    0x52  Code  Gb  tasks.o [1]
vTaskSuspend            0x0800d4a3    0x5a  Code  Gb  tasks.o [1]
vTaskSuspendAll         0x0800d5f5     0xc  Code  Gb  tasks.o [1]
vTaskSwitchContext      0x0800d771    0x58  Code  Gb  tasks.o [1]
videoSourceSelects      0x2000a544     0x4  Data  Lc  si_drv_msw.o [1]
volume_inc              0x20009f33     0x1  Data  Lc  AudioDeviceManager.o [1]
vre_ramp_count          0x20009f48     0x2  Data  Lc  AudioDeviceManager.o [1]
xActiveTimerList1       0x2000b3b4    0x14  Data  Lc  timers.o [1]
xActiveTimerList2       0x2000b3c8    0x14  Data  Lc  timers.o [1]
xDelayedTaskList1       0x20009c10    0x14  Data  Lc  tasks.o [1]
xDelayedTaskList2       0x20009c24    0x14  Data  Lc  tasks.o [1]
xEnd                    0x20000008     0x8  Data  Lc  heap_2.o [1]
xFreeBytesRemaining     0x20000010     0x4  Data  Lc  heap_2.o [1]
xIrDecoderTimeTick      0x2000affc     0x4  Data  Lc  IRLowLevelDecoder.o [1]
xNextTaskUnblockTime    0x20009c0c     0x4  Data  Lc  tasks.o [1]
xNumOfOverflows         0x20009c04     0x4  Data  Lc  tasks.o [1]
xOS_ADM_Parms           0x20009f4c    0x30  Data  Lc  AudioDeviceManager.o [1]
xOS_CS49844             0x2000b3dc    0x28  Data  Lc  cs49844.o [1]
xOS_HDMI_Parms          0x2000a308    0x20  Data  Gb  sk953x_avr_repeater.o [1]
xOS_InfraredIsr         0x2000b4f4    0x10  Data  Gb  IRLowLevel.o [1]
xOS_IrCmd               0x2000b548    0x14  Data  Gb  IRCmdHandler.o [1]
xPendingReadyList       0x20009ba4    0x14  Data  Lc  tasks.o [1]
xPortGetFreeHeapSize    0x0800dca9     0x6  Code  Gb  heap_2.o [1]
xPortStartScheduler     0x0800de7d    0x72  Code  Gb  port.o [1]
xQueueCreateMutex       0x0800cdc3    0x46  Code  Gb  queue.o [1]
xQueueGenericCreate     0x0800cd85    0x3e  Code  Gb  queue.o [1]
xQueueGenericReceive    0x0800cf99   0x110  Code  Gb  queue.o [1]
xQueueGenericReset      0x0800cd1d    0x68  Code  Gb  queue.o [1]
xQueueGenericSend       0x0800ce13   0x102  Code  Gb  queue.o [1]
xQueueGenericSendFromISR
                        0x0800cf15    0x84  Code  Gb  queue.o [1]
xQueueRegistry          0x2000b278    0x40  Data  Gb  queue.o [1]
xSchedulerRunning       0x20009bf4     0x4  Data  Lc  tasks.o [1]
xSiTimer                0x2000b4d0     0x4  Data  Gb  si_timer.o [1]
xStart                  0x20000000     0x8  Data  Lc  heap_2.o [1]
xSuspendedTaskList      0x20009bd8    0x14  Data  Lc  tasks.o [1]
xTaskCheckForTimeOut    0x0800d8b3    0x54  Code  Gb  tasks.o [1]
xTaskGenericCreate      0x0800d23d   0x15c  Code  Gb  tasks.o [1]
xTaskGetCurrentTaskHandle
                        0x0800d9b5     0x6  Code  Gb  tasks.o [1]
xTaskGetSchedulerState  0x0800d9bb    0x16  Code  Gb  tasks.o [1]
xTaskGetTickCount       0x0800d69d     0xc  Code  Gb  tasks.o [1]
xTaskIncrementTick      0x0800d6b1    0xc0  Code  Gb  tasks.o [1]
xTaskIsTaskSuspended    0x0800d51d    0x28  Code  Gb  tasks.o [1]
xTaskRemoveFromEventList
                        0x0800d833    0x4e  Code  Gb  tasks.o [1]
xTaskResumeAll          0x0800d601    0x9c  Code  Gb  tasks.o [1]
xTasksWaitingTermination
                        0x20009bb8    0x14  Data  Lc  tasks.o [1]
xTickCount              0x20009bf0     0x4  Data  Lc  tasks.o [1]
xTimerCreate            0x0800e105    0x3e  Code  Gb  timers.o [1]
xTimerCreateTimerTask   0x0800e0cd    0x38  Code  Gb  timers.o [1]
xTimerGenericCommand    0x0800e143    0x42  Code  Gb  timers.o [1]
xTimerQueue             0x2000b3b0     0x4  Data  Lc  timers.o [1]
xYieldPending           0x20009c00     0x4  Data  Lc  tasks.o [1]


[1] = C:\Users\tony.tsou\Desktop\AmTRAN\Projects\15_K2\DevCode\2\Projects\S4051A\Output\S4051A\Application\Obj
[2] = command line
[3] = dl7M_tln.a
[4] = m7M_tlv.a
[5] = rt7M_tl.a

  140 847 bytes of readonly  code memory
   14 225 bytes of readonly  data memory
   49 064 bytes of readwrite data memory

Errors: none
Warnings: none
